(dp1
S'latitude'
p2
(dp3
S'type'
p4
S'double'
p5
sS'sortable'
p6
I3
sS'sql'
p7
S'DOUBLE'
p8
ssS'kolejnosc'
p9
(dp10
S'sortable'
p11
L3L
sS'type'
p12
S'integer'
p13
sS'sql'
p14
S'INTEGER'
p15
ssS'id_pracownik'
p16
(dp17
g4
S'reference pracownik'
p18
sg6
I2
sg7
S'INTEGER REFERENCES pracownik(id) ON DELETE CASCADE'
p19
ssS'id'
p20
(dp21
g4
S'id'
p22
sg6
I1
sg7
S'INTEGER PRIMARY KEY AUTOINCREMENT'
p23
ssS'longitude'
p24
(dp25
g4
g5
sg6
I4
sg7
S'DOUBLE'
p26
ss.