(dp1
S'output'
p2
S"<type 'exceptions.IndexError'> list index out of range"
p3
sS'layer'
p4
S'D:\\UCZELNIA\\ELKA\\tin\\web2py\\web2py_win\\web2py\\applications\\ASA\\controllers/default.py'
p5
sS'code'
p6
S'# -*- coding: utf-8 -*- \n\n#########################################################################\n## This is a samples controller\n## - index is the default action of any application\n## - user is required for authentication and authorization\n## - download is for downloading files uploaded in the db (does streaming)\n## - call exposes all registered services (none by default)\n#########################################################################  \n\nimport datetime\n\ndef index():\n    if auth.user:\n        postcard = db(db.postcard.created_by==auth.user_id).select().first()\n        form = crud.update(db.postcard,postcard,next=URL(r=request))\n    else:\n        form = None    \n    postcards = db(db.postcard.id>0).select()\n    pracownicy = db(db.pracownik.imei>0).select()\n    #logi       = db(db.log.id>0).select()\n    return dict(form = form, postcards=postcards, pracownicy=pracownicy)  \n\ndef user():\n    """\n    exposes:\n    http://..../[app]/default/user/login \n    http://..../[app]/default/user/logout\n    http://..../[app]/default/user/register\n    http://..../[app]/default/user/profile\n    http://..../[app]/default/user/retrieve_password\n    http://..../[app]/default/user/change_password\n    use @auth.requires_login()\n        @auth.requires_membership(\'group name\')\n        @auth.requires_permission(\'read\',\'table name\',record_id)\n    to decorate functions that need access control\n    """\n    return dict(form=auth())\n    \ndef zaznacz_obszar():\n    txt = request.vars.id_prac\n    txt_l = txt.split("?")\n    id_prac=txt_l[0]\n    \n    pracownicy = db(db.pracownik.id==id_prac).select()\n    return dict(form= None, pracownicy=pracownicy)\n    \n    \ndef history():\n    txt = request.vars.id_prac\n    txt_l = txt.split("?")\n    id_prac=txt_l[0]\n    if txt_l[1]==\'n\':    #ustawiamy nowy obszar\n        print \'nowy_obszar\'\n        db(db.punkt_obszaru.id_pracownik==id_prac).delete()\n        k = len(txt_l)\n        i=2    #ile wczytanych\n        while i+2<=k :\n            db.punkt_obszaru.insert(id_pracownik = id_prac, latitude=txt_l[i], longitude=txt_l[i+1])   \n            i=i+2\n        okres = 10080\n        akt_set = db(db.pracownik.id==id_prac)\n        akt_set.update(nowy_obszar = 1)\n       #normalna prosba o historie\n    else:\n        okres = int(txt_l[1])\n    temp_str = str(datetime.datetime.today()-datetime.timedelta(minutes=okres))\n    #query = (db.log.id_pracownik==id_prac) & (db.log.czas>\'2012-01-07 23:34:30\')\n    query = (db.log.id_pracownik==id_prac) & (db.log.czas>temp_str)\n    logi  = db(query).select()\n    query = (db.punkt_obszaru.id_pracownik==id_prac)\n    punkty_obszaru  = db(query).select()\n    pracownicy = db(db.pracownik.id==id_prac).select()\n    return dict(form= None, logi=logi, punkty_obszaru=punkty_obszaru, pracownicy=pracownicy)\n\ndef download():\n    """\n    allows downloading of uploaded files\n    http://..../[app]/default/download/[filename]\n    """\n    return response.download(request,db)\n\n\ndef call():\n    """\n    exposes services. for example:\n    http://..../[app]/default/call/jsonrpc\n    decorate with @services.jsonrpc the functions to expose\n    supports xml, json, xmlrpc, jsonrpc, amfrpc, rss, csv\n    """\n    session.forget()\n    return service()\n    \ndef new_position():\n    txt = request.vars.position\n    txt_l=txt.split("?")\n    \n    if db(db.pracownik.imei==txt_l[0]).select():    #jezeli istnieje taki pracownik w bazie danych\n        id_prac = db(db.pracownik.imei==txt_l[0]).select().first().id     #id pracownika o danym imei\n        akt_id = db.log.insert(id_pracownik = id_prac)    #nowy rekord do log, akt_id - id logu\n        \n        \n        obszar_lat=[]\n        obszar_lng=[]\n        \n        query_pkt = (db.punkt_obszaru.id_pracownik==id_prac) \n        punkty_obszaru  = db(query_pkt).select() \n        for row in punkty_obszaru:     #kolejne punkty obszaru\n            obszar_lat.append(row.latitude)\n            obszar_lng.append(row.longitude)\n            \n\n        lat = float(txt_l[1])\n        lng = float(txt_l[2])\n        \n        \n            \n        czy_wewnatrz = point_inside_polygon(lat,lng,obszar_lat,obszar_lng)         \n        #ustawienie tabeli log\n        akt_set = db(db.log.id==akt_id)\n        akt_set.update(latitude = txt_l[1])\n        akt_set.update(longitude= txt_l[2])\n        akt_set.update(dokladnosc= txt_l[3])\n        akt_set.update(w_obszarze= czy_wewnatrz)\n        akt_set.update(czas= datetime.datetime.today())\n        #ustawienie tabeli pracownik\n        akt_set = db(db.pracownik.imei==txt_l[0])\n        akt_set.update(latitude = txt_l[1])\n        akt_set.update(longitude= txt_l[2])\n        akt_set.update(dokladnosc= txt_l[3])\n        akt_set.update(w_obszarze= czy_wewnatrz)   \n        akt_set.update(czas= datetime.datetime.today())\n        print datetime.datetime.today(), \'aktualizuje [imei, lat, long, acc]:\'\n        print txt_l\n        \n        query = (db.pracownik.id==id_prac) \n        pracownicy  = db(query).select() \n        for row in pracownicy: \n            nowy_obszar = row.nowy_obszar\n            \n        if txt_l[3]==\'0\':\n            nowy_obszar=1    \n            \n        if nowy_obszar==0:    #nie aktualizujemy\n            return \'# nie aktualizujemy obszaru\'\n            \n        msg = \'\'\n        query_pkt = (db.punkt_obszaru.id_pracownik==id_prac) \n        punkty_obszaru  = db(query_pkt).select() \n        for row in punkty_obszaru:     #kolejne punkty obszaru\n            msg = msg + str(row.latitude )+\' \'\n            msg = msg + str(row.longitude)+\' \'\n        akt_set = db(db.pracownik.id==id_prac)\n        akt_set.update(nowy_obszar = 0)\n        return msg\n    return \'# nie ma takiego pracownika\'\n        #return XML(UL(*[LI(A(\'%s - %s \' % (row.model,row.year),_href=URL(\'details\',args=row.id)))\\\n        #           for row in rows]))\n        \ndef point_inside_polygon(x,y,p_lat, p_lng):\n\n    n = len(p_lat)\n    inside =False\n\n    p1x = p_lat[0]\n    p1y = p_lng[0]\n    \n    for i in range(n+1):\n        p2x = p_lat[i%n]\n        p2y = p_lng[i%n]\n        if y > min(p1y,p2y):\n            if y <= max(p1y,p2y):\n                if x <= max(p1x,p2x):\n                    if p1y != p2y:\n                        xinters = (y-p1y)*(p2x-p1x)/(p2y-p1y)+p1x\n                    if p1x == p2x or x <= xinters:\n                        inside = not inside\n        p1x,p1y = p2x,p2y\n\n    return inside\n\ndef generate():\n    txt = request.vars.id_prac\n    txt_l = txt.split("?")\n    id_prac=txt_l[0]\n    \n    pracownicy = db(db.pracownik.id==id_prac).select()\n    return dict(form= None, pracownicy=pracownicy)\n\ndef add_points():\n    txt = request.vars.id_prac\n    txt_l = txt.split("?")\n    id_prac=txt_l[0]\n    if txt_l[1]==\'n\':    #ustawiamy nowy obszar\n        print \'nowy_obszar\'\n        db(db.punkt_obszaru.id_pracownik==id_prac).delete()\n        k = len(txt_l)\n        i=2    #ile wczytanych\n        teraz = datetime.datetime.today() - datetime.timedelta(minutes=74)\n        delta = datetime.timedelta(seconds=15)\n        \n        obszar_lat=[]\n        obszar_lng=[]\n        \n        que_pkt = (db.punkt_obszaru.id_pracownik==id_prac) \n        punk_obszaru  = db(que_pkt).select() \n        for row in punk_obszaru:     #kolejne punkty obszaru\n            print \'aa\'\n            obszar_lat.append(row.latitude)\n            obszar_lng.append(row.longitude)\n        \n        while i+2<=k :\n            czy_wewnatrz = point_inside_polygon(txt_l[i],txt_l[i+1],obszar_lat,obszar_lng)  #txt_l[i],txt_l[i+1]\n            db.log.insert(id_pracownik = id_prac, czas = teraz, latitude=txt_l[i], longitude=txt_l[i+1], dokladnosc = 3.0, w_obszarze = czy_wewnatrz)   #todo\n            i=i+2\n            teraz=teraz+delta\n        #ustawienie tabeli pracownik\n        teraz=teraz-delta\n        \n        akt_set = db(db.pracownik.id==txt_l[0])\n        akt_set.update(latitude = txt_l[i-2])\n        akt_set.update(longitude= txt_l[i-1])\n        akt_set.update(czas= teraz)\n        akt_set.update(dokladnosc= 3.0)\n        akt_set.update(w_obszarze= czy_wewnatrz)\n        return \'dodano\'\n    return \'nie dodano\'\n\nresponse._vars=response._caller(add_points)\n'
p7
sS'snapshot'
p8
(dp9
S'exception'
p10
(dp11
S'__hash__'
p12
S"<method-wrapper '__hash__' of exceptions.IndexError object at 0x06605698>"
p13
sS'__setattr__'
p14
S"<method-wrapper '__setattr__' of exceptions.IndexError object at 0x06605698>"
p15
sS'__reduce_ex__'
p16
S'<built-in method __reduce_ex__ of exceptions.IndexError object at 0x06605698>'
p17
sS'__getslice__'
p18
S"<method-wrapper '__getslice__' of exceptions.IndexError object at 0x06605698>"
p19
sS'__getitem__'
p20
S"<method-wrapper '__getitem__' of exceptions.IndexError object at 0x06605698>"
p21
sS'__setstate__'
p22
S'<built-in method __setstate__ of exceptions.IndexError object at 0x06605698>'
p23
sS'__reduce__'
p24
S'<built-in method __reduce__ of exceptions.IndexError object at 0x06605698>'
p25
sS'__str__'
p26
S"<method-wrapper '__str__' of exceptions.IndexError object at 0x06605698>"
p27
sS'args'
p28
S"('list index out of range',)"
p29
sS'__getattribute__'
p30
S"<method-wrapper '__getattribute__' of exceptions.IndexError object at 0x06605698>"
p31
sS'__class__'
p32
S"<type 'exceptions.IndexError'>"
p33
sS'__delattr__'
p34
S"<method-wrapper '__delattr__' of exceptions.IndexError object at 0x06605698>"
p35
sS'__repr__'
p36
S"<method-wrapper '__repr__' of exceptions.IndexError object at 0x06605698>"
p37
sS'__dict__'
p38
S'{}'
p39
sS'__doc__'
p40
S"'Sequence index out of range.'"
p41
sS'__init__'
p42
S"<method-wrapper '__init__' of exceptions.IndexError object at 0x06605698>"
p43
sS'__new__'
p44
S'<built-in method __new__ of type object at 0x1E1CDEF0>'
p45
ssS'evalue'
p46
S'list index out of range'
p47
sS'request'
p48
ccopy_reg
_reconstructor
p49
(cgluon.html
BEAUTIFY
p50
c__builtin__
object
p51
NtRp52
(dp53
S'attributes'
p54
(dp55
sS'components'
p56
(lp57
g49
(cgluon.html
TABLE
p58
g51
NtRp59
(dp60
g54
(dp61
S'level'
p62
I5
ssS'parent'
p63
Nsg56
(lp64
g49
(cgluon.html
TR
p65
g51
NtRp66
(dp67
g54
(dp68
sg63
g59
sg56
(lp69
g49
(cgluon.html
TD
p70
g51
NtRp71
(dp72
g54
(dp73
S'_style'
p74
S'font-weight:bold;vertical-align:top'
p75
ssg63
g66
sg56
(lp76
S'ajax'
p77
asbag49
(g70
g51
NtRp78
(dp79
g54
(dp80
S'_valign'
p81
S'top'
p82
ssg63
g66
sg56
(lp83
S':'
asbag49
(g70
g51
NtRp84
(dp85
g54
(dp86
sg63
g66
sg56
(lp87
g49
(g50
g51
NtRp88
(dp89
g54
(dp90
g62
I5
ssg63
g84
sg56
(lp91
S'False'
p92
asbasbasbag49
(g65
g51
NtRp93
(dp94
g54
(dp95
sg63
g59
sg56
(lp96
g49
(g70
g51
NtRp97
(dp98
g54
(dp99
g74
g75
ssg63
g93
sg56
(lp100
S'application'
p101
asbag49
(g70
g51
NtRp102
(dp103
g54
(dp104
g81
g82
ssg63
g93
sg56
(lp105
S':'
asbag49
(g70
g51
NtRp106
(dp107
g54
(dp108
sg63
g93
sg56
(lp109
g49
(g50
g51
NtRp110
(dp111
g54
(dp112
g62
I5
ssg63
g106
sg56
(lp113
S'ASA'
p114
asbasbasbag49
(g65
g51
NtRp115
(dp116
g54
(dp117
sg63
g59
sg56
(lp118
g49
(g70
g51
NtRp119
(dp120
g54
(dp121
g74
g75
ssg63
g115
sg56
(lp122
g28
asbag49
(g70
g51
NtRp123
(dp124
g54
(dp125
g81
g82
ssg63
g115
sg56
(lp126
S':'
asbag49
(g70
g51
NtRp127
(dp128
g54
(dp129
sg63
g115
sg56
(lp130
g49
(g50
g51
NtRp131
(dp132
g54
(dp133
g62
I5
ssg63
g127
sg56
(lp134
g49
(g58
g51
NtRp135
(dp136
g54
(dp137
g62
I4
ssg63
Nsg56
(lp138
sbasbasbasbag49
(g65
g51
NtRp139
(dp140
g54
(dp141
sg63
g59
sg56
(lp142
g49
(g70
g51
NtRp143
(dp144
g54
(dp145
g74
g75
ssg63
g139
sg56
(lp146
S'body'
p147
asbag49
(g70
g51
NtRp148
(dp149
g54
(dp150
g81
g82
ssg63
g139
sg56
(lp151
S':'
asbag49
(g70
g51
NtRp152
(dp153
g54
(dp154
sg63
g139
sg56
(lp155
g49
(g50
g51
NtRp156
(dp157
g54
(dp158
g62
I5
ssg63
g152
sg56
(lp159
S'<cStringIO.StringO object at 0x05E0F9C0>'
p160
asbasbasbag49
(g65
g51
NtRp161
(dp162
g54
(dp163
sg63
g59
sg56
(lp164
g49
(g70
g51
NtRp165
(dp166
g54
(dp167
g74
g75
ssg63
g161
sg56
(lp168
S'client'
p169
asbag49
(g70
g51
NtRp170
(dp171
g54
(dp172
g81
g82
ssg63
g161
sg56
(lp173
S':'
asbag49
(g70
g51
NtRp174
(dp175
g54
(dp176
sg63
g161
sg56
(lp177
g49
(g50
g51
NtRp178
(dp179
g54
(dp180
g62
I5
ssg63
g174
sg56
(lp181
S'127.0.0.1'
p182
asbasbasbag49
(g65
g51
NtRp183
(dp184
g54
(dp185
sg63
g59
sg56
(lp186
g49
(g70
g51
NtRp187
(dp188
g54
(dp189
g74
g75
ssg63
g183
sg56
(lp190
S'controller'
p191
asbag49
(g70
g51
NtRp192
(dp193
g54
(dp194
g81
g82
ssg63
g183
sg56
(lp195
S':'
asbag49
(g70
g51
NtRp196
(dp197
g54
(dp198
sg63
g183
sg56
(lp199
g49
(g50
g51
NtRp200
(dp201
g54
(dp202
g62
I5
ssg63
g196
sg56
(lp203
S'default'
p204
asbasbasbag49
(g65
g51
NtRp205
(dp206
g54
(dp207
sg63
g59
sg56
(lp208
g49
(g70
g51
NtRp209
(dp210
g54
(dp211
g74
g75
ssg63
g205
sg56
(lp212
S'cookies'
p213
asbag49
(g70
g51
NtRp214
(dp215
g54
(dp216
g81
g82
ssg63
g205
sg56
(lp217
S':'
asbag49
(g70
g51
NtRp218
(dp219
g54
(dp220
sg63
g205
sg56
(lp221
g49
(g50
g51
NtRp222
(dp223
g54
(dp224
g62
I5
ssg63
g218
sg56
(lp225
g49
(g58
g51
NtRp226
(dp227
g54
(dp228
g62
I4
ssg63
Nsg56
(lp229
g49
(g65
g51
NtRp230
(dp231
g54
(dp232
sg63
g226
sg56
(lp233
g49
(g70
g51
NtRp234
(dp235
g54
(dp236
g74
g75
ssg63
g230
sg56
(lp237
S'session_id_admin'
p238
asbag49
(g70
g51
NtRp239
(dp240
g54
(dp241
g81
g82
ssg63
g230
sg56
(lp242
S':'
asbag49
(g70
g51
NtRp243
(dp244
g54
(dp245
sg63
g230
sg56
(lp246
g49
(g50
g51
NtRp247
(dp248
g54
(dp249
g62
I4
ssg63
g243
sg56
(lp250
g49
(g58
g51
NtRp251
(dp252
g54
(dp253
g62
I3
ssg63
Nsg56
(lp254
g49
(g65
g51
NtRp255
(dp256
g54
(dp257
sg63
g251
sg56
(lp258
g49
(g70
g51
NtRp259
(dp260
g54
(dp261
g74
g75
ssg63
g255
sg56
(lp262
S'comment'
p263
asbag49
(g70
g51
NtRp264
(dp265
g54
(dp266
g81
g82
ssg63
g255
sg56
(lp267
S':'
asbag49
(g70
g51
NtRp268
(dp269
g54
(dp270
sg63
g255
sg56
(lp271
g49
(g50
g51
NtRp272
(dp273
g54
(dp274
g62
I3
ssg63
g268
sg56
(lp275
S''
asbasbasbag49
(g65
g51
NtRp276
(dp277
g54
(dp278
sg63
g251
sg56
(lp279
g49
(g70
g51
NtRp280
(dp281
g54
(dp282
g74
g75
ssg63
g276
sg56
(lp283
S'domain'
p284
asbag49
(g70
g51
NtRp285
(dp286
g54
(dp287
g81
g82
ssg63
g276
sg56
(lp288
S':'
asbag49
(g70
g51
NtRp289
(dp290
g54
(dp291
sg63
g276
sg56
(lp292
g49
(g50
g51
NtRp293
(dp294
g54
(dp295
g62
I3
ssg63
g289
sg56
(lp296
S''
asbasbasbag49
(g65
g51
NtRp297
(dp298
g54
(dp299
sg63
g251
sg56
(lp300
g49
(g70
g51
NtRp301
(dp302
g54
(dp303
g74
g75
ssg63
g297
sg56
(lp304
S'expires'
p305
asbag49
(g70
g51
NtRp306
(dp307
g54
(dp308
g81
g82
ssg63
g297
sg56
(lp309
S':'
asbag49
(g70
g51
NtRp310
(dp311
g54
(dp312
sg63
g297
sg56
(lp313
g49
(g50
g51
NtRp314
(dp315
g54
(dp316
g62
I3
ssg63
g310
sg56
(lp317
S''
asbasbasbag49
(g65
g51
NtRp318
(dp319
g54
(dp320
sg63
g251
sg56
(lp321
g49
(g70
g51
NtRp322
(dp323
g54
(dp324
g74
g75
ssg63
g318
sg56
(lp325
S'max-age'
p326
asbag49
(g70
g51
NtRp327
(dp328
g54
(dp329
g81
g82
ssg63
g318
sg56
(lp330
S':'
asbag49
(g70
g51
NtRp331
(dp332
g54
(dp333
sg63
g318
sg56
(lp334
g49
(g50
g51
NtRp335
(dp336
g54
(dp337
g62
I3
ssg63
g331
sg56
(lp338
S''
asbasbasbag49
(g65
g51
NtRp339
(dp340
g54
(dp341
sg63
g251
sg56
(lp342
g49
(g70
g51
NtRp343
(dp344
g54
(dp345
g74
g75
ssg63
g339
sg56
(lp346
S'path'
p347
asbag49
(g70
g51
NtRp348
(dp349
g54
(dp350
g81
g82
ssg63
g339
sg56
(lp351
S':'
asbag49
(g70
g51
NtRp352
(dp353
g54
(dp354
sg63
g339
sg56
(lp355
g49
(g50
g51
NtRp356
(dp357
g54
(dp358
g62
I3
ssg63
g352
sg56
(lp359
S''
asbasbasbag49
(g65
g51
NtRp360
(dp361
g54
(dp362
sg63
g251
sg56
(lp363
g49
(g70
g51
NtRp364
(dp365
g54
(dp366
g74
g75
ssg63
g360
sg56
(lp367
S'secure'
p368
asbag49
(g70
g51
NtRp369
(dp370
g54
(dp371
g81
g82
ssg63
g360
sg56
(lp372
S':'
asbag49
(g70
g51
NtRp373
(dp374
g54
(dp375
sg63
g360
sg56
(lp376
g49
(g50
g51
NtRp377
(dp378
g54
(dp379
g62
I3
ssg63
g373
sg56
(lp380
S''
asbasbasbag49
(g65
g51
NtRp381
(dp382
g54
(dp383
sg63
g251
sg56
(lp384
g49
(g70
g51
NtRp385
(dp386
g54
(dp387
g74
g75
ssg63
g381
sg56
(lp388
S'version'
p389
asbag49
(g70
g51
NtRp390
(dp391
g54
(dp392
g81
g82
ssg63
g381
sg56
(lp393
S':'
asbag49
(g70
g51
NtRp394
(dp395
g54
(dp396
sg63
g381
sg56
(lp397
g49
(g50
g51
NtRp398
(dp399
g54
(dp400
g62
I3
ssg63
g394
sg56
(lp401
S''
asbasbasbasbasbasbasbag49
(g65
g51
NtRp402
(dp403
g54
(dp404
sg63
g226
sg56
(lp405
g49
(g70
g51
NtRp406
(dp407
g54
(dp408
g74
g75
ssg63
g402
sg56
(lp409
S'session_id_asa'
p410
asbag49
(g70
g51
NtRp411
(dp412
g54
(dp413
g81
g82
ssg63
g402
sg56
(lp414
S':'
asbag49
(g70
g51
NtRp415
(dp416
g54
(dp417
sg63
g402
sg56
(lp418
g49
(g50
g51
NtRp419
(dp420
g54
(dp421
g62
I4
ssg63
g415
sg56
(lp422
g49
(g58
g51
NtRp423
(dp424
g54
(dp425
g62
I3
ssg63
Nsg56
(lp426
g49
(g65
g51
NtRp427
(dp428
g54
(dp429
sg63
g423
sg56
(lp430
g49
(g70
g51
NtRp431
(dp432
g54
(dp433
g74
g75
ssg63
g427
sg56
(lp434
g263
asbag49
(g70
g51
NtRp435
(dp436
g54
(dp437
g81
g82
ssg63
g427
sg56
(lp438
S':'
asbag49
(g70
g51
NtRp439
(dp440
g54
(dp441
sg63
g427
sg56
(lp442
g49
(g50
g51
NtRp443
(dp444
g54
(dp445
g62
I3
ssg63
g439
sg56
(lp446
S''
asbasbasbag49
(g65
g51
NtRp447
(dp448
g54
(dp449
sg63
g423
sg56
(lp450
g49
(g70
g51
NtRp451
(dp452
g54
(dp453
g74
g75
ssg63
g447
sg56
(lp454
g284
asbag49
(g70
g51
NtRp455
(dp456
g54
(dp457
g81
g82
ssg63
g447
sg56
(lp458
S':'
asbag49
(g70
g51
NtRp459
(dp460
g54
(dp461
sg63
g447
sg56
(lp462
g49
(g50
g51
NtRp463
(dp464
g54
(dp465
g62
I3
ssg63
g459
sg56
(lp466
S''
asbasbasbag49
(g65
g51
NtRp467
(dp468
g54
(dp469
sg63
g423
sg56
(lp470
g49
(g70
g51
NtRp471
(dp472
g54
(dp473
g74
g75
ssg63
g467
sg56
(lp474
g305
asbag49
(g70
g51
NtRp475
(dp476
g54
(dp477
g81
g82
ssg63
g467
sg56
(lp478
S':'
asbag49
(g70
g51
NtRp479
(dp480
g54
(dp481
sg63
g467
sg56
(lp482
g49
(g50
g51
NtRp483
(dp484
g54
(dp485
g62
I3
ssg63
g479
sg56
(lp486
S''
asbasbasbag49
(g65
g51
NtRp487
(dp488
g54
(dp489
sg63
g423
sg56
(lp490
g49
(g70
g51
NtRp491
(dp492
g54
(dp493
g74
g75
ssg63
g487
sg56
(lp494
g326
asbag49
(g70
g51
NtRp495
(dp496
g54
(dp497
g81
g82
ssg63
g487
sg56
(lp498
S':'
asbag49
(g70
g51
NtRp499
(dp500
g54
(dp501
sg63
g487
sg56
(lp502
g49
(g50
g51
NtRp503
(dp504
g54
(dp505
g62
I3
ssg63
g499
sg56
(lp506
S''
asbasbasbag49
(g65
g51
NtRp507
(dp508
g54
(dp509
sg63
g423
sg56
(lp510
g49
(g70
g51
NtRp511
(dp512
g54
(dp513
g74
g75
ssg63
g507
sg56
(lp514
g347
asbag49
(g70
g51
NtRp515
(dp516
g54
(dp517
g81
g82
ssg63
g507
sg56
(lp518
S':'
asbag49
(g70
g51
NtRp519
(dp520
g54
(dp521
sg63
g507
sg56
(lp522
g49
(g50
g51
NtRp523
(dp524
g54
(dp525
g62
I3
ssg63
g519
sg56
(lp526
S''
asbasbasbag49
(g65
g51
NtRp527
(dp528
g54
(dp529
sg63
g423
sg56
(lp530
g49
(g70
g51
NtRp531
(dp532
g54
(dp533
g74
g75
ssg63
g527
sg56
(lp534
g368
asbag49
(g70
g51
NtRp535
(dp536
g54
(dp537
g81
g82
ssg63
g527
sg56
(lp538
S':'
asbag49
(g70
g51
NtRp539
(dp540
g54
(dp541
sg63
g527
sg56
(lp542
g49
(g50
g51
NtRp543
(dp544
g54
(dp545
g62
I3
ssg63
g539
sg56
(lp546
S''
asbasbasbag49
(g65
g51
NtRp547
(dp548
g54
(dp549
sg63
g423
sg56
(lp550
g49
(g70
g51
NtRp551
(dp552
g54
(dp553
g74
g75
ssg63
g547
sg56
(lp554
g389
asbag49
(g70
g51
NtRp555
(dp556
g54
(dp557
g81
g82
ssg63
g547
sg56
(lp558
S':'
asbag49
(g70
g51
NtRp559
(dp560
g54
(dp561
sg63
g547
sg56
(lp562
g49
(g50
g51
NtRp563
(dp564
g54
(dp565
g62
I3
ssg63
g559
sg56
(lp566
S''
asbasbasbasbasbasbasbag49
(g65
g51
NtRp567
(dp568
g54
(dp569
sg63
g226
sg56
(lp570
g49
(g70
g51
NtRp571
(dp572
g54
(dp573
g74
g75
ssg63
g567
sg56
(lp574
S'session_id_welcome'
p575
asbag49
(g70
g51
NtRp576
(dp577
g54
(dp578
g81
g82
ssg63
g567
sg56
(lp579
S':'
asbag49
(g70
g51
NtRp580
(dp581
g54
(dp582
sg63
g567
sg56
(lp583
g49
(g50
g51
NtRp584
(dp585
g54
(dp586
g62
I4
ssg63
g580
sg56
(lp587
g49
(g58
g51
NtRp588
(dp589
g54
(dp590
g62
I3
ssg63
Nsg56
(lp591
g49
(g65
g51
NtRp592
(dp593
g54
(dp594
sg63
g588
sg56
(lp595
g49
(g70
g51
NtRp596
(dp597
g54
(dp598
g74
g75
ssg63
g592
sg56
(lp599
g263
asbag49
(g70
g51
NtRp600
(dp601
g54
(dp602
g81
g82
ssg63
g592
sg56
(lp603
S':'
asbag49
(g70
g51
NtRp604
(dp605
g54
(dp606
sg63
g592
sg56
(lp607
g49
(g50
g51
NtRp608
(dp609
g54
(dp610
g62
I3
ssg63
g604
sg56
(lp611
S''
asbasbasbag49
(g65
g51
NtRp612
(dp613
g54
(dp614
sg63
g588
sg56
(lp615
g49
(g70
g51
NtRp616
(dp617
g54
(dp618
g74
g75
ssg63
g612
sg56
(lp619
g284
asbag49
(g70
g51
NtRp620
(dp621
g54
(dp622
g81
g82
ssg63
g612
sg56
(lp623
S':'
asbag49
(g70
g51
NtRp624
(dp625
g54
(dp626
sg63
g612
sg56
(lp627
g49
(g50
g51
NtRp628
(dp629
g54
(dp630
g62
I3
ssg63
g624
sg56
(lp631
S''
asbasbasbag49
(g65
g51
NtRp632
(dp633
g54
(dp634
sg63
g588
sg56
(lp635
g49
(g70
g51
NtRp636
(dp637
g54
(dp638
g74
g75
ssg63
g632
sg56
(lp639
g305
asbag49
(g70
g51
NtRp640
(dp641
g54
(dp642
g81
g82
ssg63
g632
sg56
(lp643
S':'
asbag49
(g70
g51
NtRp644
(dp645
g54
(dp646
sg63
g632
sg56
(lp647
g49
(g50
g51
NtRp648
(dp649
g54
(dp650
g62
I3
ssg63
g644
sg56
(lp651
S''
asbasbasbag49
(g65
g51
NtRp652
(dp653
g54
(dp654
sg63
g588
sg56
(lp655
g49
(g70
g51
NtRp656
(dp657
g54
(dp658
g74
g75
ssg63
g652
sg56
(lp659
g326
asbag49
(g70
g51
NtRp660
(dp661
g54
(dp662
g81
g82
ssg63
g652
sg56
(lp663
S':'
asbag49
(g70
g51
NtRp664
(dp665
g54
(dp666
sg63
g652
sg56
(lp667
g49
(g50
g51
NtRp668
(dp669
g54
(dp670
g62
I3
ssg63
g664
sg56
(lp671
S''
asbasbasbag49
(g65
g51
NtRp672
(dp673
g54
(dp674
sg63
g588
sg56
(lp675
g49
(g70
g51
NtRp676
(dp677
g54
(dp678
g74
g75
ssg63
g672
sg56
(lp679
g347
asbag49
(g70
g51
NtRp680
(dp681
g54
(dp682
g81
g82
ssg63
g672
sg56
(lp683
S':'
asbag49
(g70
g51
NtRp684
(dp685
g54
(dp686
sg63
g672
sg56
(lp687
g49
(g50
g51
NtRp688
(dp689
g54
(dp690
g62
I3
ssg63
g684
sg56
(lp691
S''
asbasbasbag49
(g65
g51
NtRp692
(dp693
g54
(dp694
sg63
g588
sg56
(lp695
g49
(g70
g51
NtRp696
(dp697
g54
(dp698
g74
g75
ssg63
g692
sg56
(lp699
g368
asbag49
(g70
g51
NtRp700
(dp701
g54
(dp702
g81
g82
ssg63
g692
sg56
(lp703
S':'
asbag49
(g70
g51
NtRp704
(dp705
g54
(dp706
sg63
g692
sg56
(lp707
g49
(g50
g51
NtRp708
(dp709
g54
(dp710
g62
I3
ssg63
g704
sg56
(lp711
S''
asbasbasbag49
(g65
g51
NtRp712
(dp713
g54
(dp714
sg63
g588
sg56
(lp715
g49
(g70
g51
NtRp716
(dp717
g54
(dp718
g74
g75
ssg63
g712
sg56
(lp719
g389
asbag49
(g70
g51
NtRp720
(dp721
g54
(dp722
g81
g82
ssg63
g712
sg56
(lp723
S':'
asbag49
(g70
g51
NtRp724
(dp725
g54
(dp726
sg63
g712
sg56
(lp727
g49
(g50
g51
NtRp728
(dp729
g54
(dp730
g62
I3
ssg63
g724
sg56
(lp731
S''
asbasbasbasbasbasbasbasbasbasbasbag49
(g65
g51
NtRp732
(dp733
g54
(dp734
sg63
g59
sg56
(lp735
g49
(g70
g51
NtRp736
(dp737
g54
(dp738
g74
g75
ssg63
g732
sg56
(lp739
S'env'
p740
asbag49
(g70
g51
NtRp741
(dp742
g54
(dp743
g81
g82
ssg63
g732
sg56
(lp744
S':'
asbag49
(g70
g51
NtRp745
(dp746
g54
(dp747
sg63
g732
sg56
(lp748
g49
(g50
g51
NtRp749
(dp750
g54
(dp751
g62
I5
ssg63
g745
sg56
(lp752
g49
(g58
g51
NtRp753
(dp754
g54
(dp755
g62
I4
ssg63
Nsg56
(lp756
g49
(g65
g51
NtRp757
(dp758
g54
(dp759
sg63
g753
sg56
(lp760
g49
(g70
g51
NtRp761
(dp762
g54
(dp763
g74
g75
ssg63
g757
sg56
(lp764
S'app_folders'
p765
asbag49
(g70
g51
NtRp766
(dp767
g54
(dp768
g81
g82
ssg63
g757
sg56
(lp769
S':'
asbag49
(g70
g51
NtRp770
(dp771
g54
(dp772
sg63
g757
sg56
(lp773
g49
(g50
g51
NtRp774
(dp775
g54
(dp776
g62
I4
ssg63
g770
sg56
(lp777
S"set(['D:\\\\UCZELNIA\\\\ELKA\\\\tin\\\\web2py\\\\web2py_win\\\\web2py\\\\applications\\\\welcome\\\\', 'D:\\\\UCZELNIA\\\\ELKA\\\\tin\\\\web2py\\\\web2py_win\\\\web2py\\\\applications\\\\admin\\\\', 'D:\\\\UCZELNIA\\\\ELKA\\\\tin\\\\web2py\\\\web2py_win\\\\web2py\\\\applications\\\\ASA\\\\'])"
p778
asbasbasbag49
(g65
g51
NtRp779
(dp780
g54
(dp781
sg63
g753
sg56
(lp782
g49
(g70
g51
NtRp783
(dp784
g54
(dp785
g74
g75
ssg63
g779
sg56
(lp786
S'applications_parent'
p787
asbag49
(g70
g51
NtRp788
(dp789
g54
(dp790
g81
g82
ssg63
g779
sg56
(lp791
S':'
asbag49
(g70
g51
NtRp792
(dp793
g54
(dp794
sg63
g779
sg56
(lp795
g49
(g50
g51
NtRp796
(dp797
g54
(dp798
g62
I4
ssg63
g792
sg56
(lp799
S'D:\\UCZELNIA\\ELKA\\tin\\web2py\\web2py_win\\web2py'
p800
asbasbasbag49
(g65
g51
NtRp801
(dp802
g54
(dp803
sg63
g753
sg56
(lp804
g49
(g70
g51
NtRp805
(dp806
g54
(dp807
g74
g75
ssg63
g801
sg56
(lp808
S'cmd_args'
p809
asbag49
(g70
g51
NtRp810
(dp811
g54
(dp812
g81
g82
ssg63
g801
sg56
(lp813
S':'
asbag49
(g70
g51
NtRp814
(dp815
g54
(dp816
sg63
g801
sg56
(lp817
g49
(g50
g51
NtRp818
(dp819
g54
(dp820
g62
I4
ssg63
g814
sg56
(lp821
g49
(g58
g51
NtRp822
(dp823
g54
(dp824
g62
I3
ssg63
Nsg56
(lp825
sbasbasbasbag49
(g65
g51
NtRp826
(dp827
g54
(dp828
sg63
g753
sg56
(lp829
g49
(g70
g51
NtRp830
(dp831
g54
(dp832
g74
g75
ssg63
g826
sg56
(lp833
S'cmd_options'
p834
asbag49
(g70
g51
NtRp835
(dp836
g54
(dp837
g81
g82
ssg63
g826
sg56
(lp838
S':'
asbag49
(g70
g51
NtRp839
(dp840
g54
(dp841
sg63
g826
sg56
(lp842
g49
(g50
g51
NtRp843
(dp844
g54
(dp845
g62
I4
ssg63
g839
sg56
(lp846
S"<Values at 0x2cfc300: {'verbose': False, 'ip': '127.0.0.1', 'shutdown_timeout': 5, 'taskbar': False, 'nocron': False, 'pid_filename': 'httpserver.pid', 'maxthreads': None, 'softcron': False, 'server_name': 'hyden-PC', 'bpython': False, 'nogui': False, 'port': 8000, 'extcron': False, 'debuglevel': 30, 'test': None, 'folder': 'D:\\\\UCZELNIA\\\\ELKA\\\\tin\\\\web2py\\\\web2py_win\\\\web2py', 'config': '', 'import_models': False, 'winservice': '', 'shell': None, 'run': '', 'log_filename': 'httpserver.log', 'args': [''], 'socket_timeout': 1, 'ssl_ca_certificate': None, 'scheduler': None, 'profiler_filename': None, 'ssl_private_key': '', 'password': '<ask>', 'request_queue_size': 5, 'ssl_certificate': '', 'cronjob': False, 'numthreads': None, 'quiet': False, 'interfaces': None, 'minthreads': None, 'timeout': 10, 'plain': False, 'nobanner': False}>"
p847
asbasbasbag49
(g65
g51
NtRp848
(dp849
g54
(dp850
sg63
g753
sg56
(lp851
g49
(g70
g51
NtRp852
(dp853
g54
(dp854
g74
g75
ssg63
g848
sg56
(lp855
S'db_sessions'
p856
asbag49
(g70
g51
NtRp857
(dp858
g54
(dp859
g81
g82
ssg63
g848
sg56
(lp860
S':'
asbag49
(g70
g51
NtRp861
(dp862
g54
(dp863
sg63
g848
sg56
(lp864
g49
(g50
g51
NtRp865
(dp866
g54
(dp867
g62
I4
ssg63
g861
sg56
(lp868
S'set([])'
p869
asbasbasbag49
(g65
g51
NtRp870
(dp871
g54
(dp872
sg63
g753
sg56
(lp873
g49
(g70
g51
NtRp874
(dp875
g54
(dp876
g74
g75
ssg63
g870
sg56
(lp877
S'debugging'
p878
asbag49
(g70
g51
NtRp879
(dp880
g54
(dp881
g81
g82
ssg63
g870
sg56
(lp882
S':'
asbag49
(g70
g51
NtRp883
(dp884
g54
(dp885
sg63
g870
sg56
(lp886
g49
(g50
g51
NtRp887
(dp888
g54
(dp889
g62
I4
ssg63
g883
sg56
(lp890
g92
asbasbasbag49
(g65
g51
NtRp891
(dp892
g54
(dp893
sg63
g753
sg56
(lp894
g49
(g70
g51
NtRp895
(dp896
g54
(dp897
g74
g75
ssg63
g891
sg56
(lp898
S'gluon_parent'
p899
asbag49
(g70
g51
NtRp900
(dp901
g54
(dp902
g81
g82
ssg63
g891
sg56
(lp903
S':'
asbag49
(g70
g51
NtRp904
(dp905
g54
(dp906
sg63
g891
sg56
(lp907
g49
(g50
g51
NtRp908
(dp909
g54
(dp910
g62
I4
ssg63
g904
sg56
(lp911
S'D:\\UCZELNIA\\ELKA\\tin\\web2py\\web2py_win\\web2py'
p912
asbasbasbag49
(g65
g51
NtRp913
(dp914
g54
(dp915
sg63
g753
sg56
(lp916
g49
(g70
g51
NtRp917
(dp918
g54
(dp919
g74
g75
ssg63
g913
sg56
(lp920
S'http_accept'
p921
asbag49
(g70
g51
NtRp922
(dp923
g54
(dp924
g81
g82
ssg63
g913
sg56
(lp925
S':'
asbag49
(g70
g51
NtRp926
(dp927
g54
(dp928
sg63
g913
sg56
(lp929
g49
(g50
g51
NtRp930
(dp931
g54
(dp932
g62
I4
ssg63
g926
sg56
(lp933
S'text/html,application/xhtml+xml,application/xml;q=0.9,*/*;q=0.8'
p934
asbasbasbag49
(g65
g51
NtRp935
(dp936
g54
(dp937
sg63
g753
sg56
(lp938
g49
(g70
g51
NtRp939
(dp940
g54
(dp941
g74
g75
ssg63
g935
sg56
(lp942
S'http_accept_charset'
p943
asbag49
(g70
g51
NtRp944
(dp945
g54
(dp946
g81
g82
ssg63
g935
sg56
(lp947
S':'
asbag49
(g70
g51
NtRp948
(dp949
g54
(dp950
sg63
g935
sg56
(lp951
g49
(g50
g51
NtRp952
(dp953
g54
(dp954
g62
I4
ssg63
g948
sg56
(lp955
S'ISO-8859-2,utf-8;q=0.7,*;q=0.7'
p956
asbasbasbag49
(g65
g51
NtRp957
(dp958
g54
(dp959
sg63
g753
sg56
(lp960
g49
(g70
g51
NtRp961
(dp962
g54
(dp963
g74
g75
ssg63
g957
sg56
(lp964
S'http_accept_encoding'
p965
asbag49
(g70
g51
NtRp966
(dp967
g54
(dp968
g81
g82
ssg63
g957
sg56
(lp969
S':'
asbag49
(g70
g51
NtRp970
(dp971
g54
(dp972
sg63
g957
sg56
(lp973
g49
(g50
g51
NtRp974
(dp975
g54
(dp976
g62
I4
ssg63
g970
sg56
(lp977
S'gzip,deflate'
p978
asbasbasbag49
(g65
g51
NtRp979
(dp980
g54
(dp981
sg63
g753
sg56
(lp982
g49
(g70
g51
NtRp983
(dp984
g54
(dp985
g74
g75
ssg63
g979
sg56
(lp986
S'http_accept_language'
p987
asbag49
(g70
g51
NtRp988
(dp989
g54
(dp990
g81
g82
ssg63
g979
sg56
(lp991
S':'
asbag49
(g70
g51
NtRp992
(dp993
g54
(dp994
sg63
g979
sg56
(lp995
g49
(g50
g51
NtRp996
(dp997
g54
(dp998
g62
I4
ssg63
g992
sg56
(lp999
S'pl,en-us;q=0.7,en;q=0.3'
p1000
asbasbasbag49
(g65
g51
NtRp1001
(dp1002
g54
(dp1003
sg63
g753
sg56
(lp1004
g49
(g70
g51
NtRp1005
(dp1006
g54
(dp1007
g74
g75
ssg63
g1001
sg56
(lp1008
S'http_connection'
p1009
asbag49
(g70
g51
NtRp1010
(dp1011
g54
(dp1012
g81
g82
ssg63
g1001
sg56
(lp1013
S':'
asbag49
(g70
g51
NtRp1014
(dp1015
g54
(dp1016
sg63
g1001
sg56
(lp1017
g49
(g50
g51
NtRp1018
(dp1019
g54
(dp1020
g62
I4
ssg63
g1014
sg56
(lp1021
S'keep-alive'
p1022
asbasbasbag49
(g65
g51
NtRp1023
(dp1024
g54
(dp1025
sg63
g753
sg56
(lp1026
g49
(g70
g51
NtRp1027
(dp1028
g54
(dp1029
g74
g75
ssg63
g1023
sg56
(lp1030
S'http_cookie'
p1031
asbag49
(g70
g51
NtRp1032
(dp1033
g54
(dp1034
g81
g82
ssg63
g1023
sg56
(lp1035
S':'
asbag49
(g70
g51
NtRp1036
(dp1037
g54
(dp1038
sg63
g1023
sg56
(lp1039
g49
(g50
g51
NtRp1040
(dp1041
g54
(dp1042
g62
I4
ssg63
g1036
sg56
(lp1043
S'session_id_welcome=127.0.0.1-ec2d0a75-b5c9-4e96-ad47-0a4e962410c9; session_id_admin=127.0.0.1-ec258d56-d5bc-4ca8-88b1-895744aec544; session_id_asa=127.0.0.1-e0241e6a-d76e-4a96-90ff-9a64d2380ff9'
p1044
asbasbasbag49
(g65
g51
NtRp1045
(dp1046
g54
(dp1047
sg63
g753
sg56
(lp1048
g49
(g70
g51
NtRp1049
(dp1050
g54
(dp1051
g74
g75
ssg63
g1045
sg56
(lp1052
S'http_host'
p1053
asbag49
(g70
g51
NtRp1054
(dp1055
g54
(dp1056
g81
g82
ssg63
g1045
sg56
(lp1057
S':'
asbag49
(g70
g51
NtRp1058
(dp1059
g54
(dp1060
sg63
g1045
sg56
(lp1061
g49
(g50
g51
NtRp1062
(dp1063
g54
(dp1064
g62
I4
ssg63
g1058
sg56
(lp1065
S'127.0.0.1:8000'
p1066
asbasbasbag49
(g65
g51
NtRp1067
(dp1068
g54
(dp1069
sg63
g753
sg56
(lp1070
g49
(g70
g51
NtRp1071
(dp1072
g54
(dp1073
g74
g75
ssg63
g1067
sg56
(lp1074
S'http_keep_alive'
p1075
asbag49
(g70
g51
NtRp1076
(dp1077
g54
(dp1078
g81
g82
ssg63
g1067
sg56
(lp1079
S':'
asbag49
(g70
g51
NtRp1080
(dp1081
g54
(dp1082
sg63
g1067
sg56
(lp1083
g49
(g50
g51
NtRp1084
(dp1085
g54
(dp1086
g62
I4
ssg63
g1080
sg56
(lp1087
S'115'
p1088
asbasbasbag49
(g65
g51
NtRp1089
(dp1090
g54
(dp1091
sg63
g753
sg56
(lp1092
g49
(g70
g51
NtRp1093
(dp1094
g54
(dp1095
g74
g75
ssg63
g1089
sg56
(lp1096
S'http_user_agent'
p1097
asbag49
(g70
g51
NtRp1098
(dp1099
g54
(dp1100
g81
g82
ssg63
g1089
sg56
(lp1101
S':'
asbag49
(g70
g51
NtRp1102
(dp1103
g54
(dp1104
sg63
g1089
sg56
(lp1105
g49
(g50
g51
NtRp1106
(dp1107
g54
(dp1108
g62
I4
ssg63
g1102
sg56
(lp1109
S'Mozilla/5.0 (Windows; U; Windows NT 6.1; pl; rv:1.9.2.25) Gecko/20111212 Firefox/3.6.25'
p1110
asbasbasbag49
(g65
g51
NtRp1111
(dp1112
g54
(dp1113
sg63
g753
sg56
(lp1114
g49
(g70
g51
NtRp1115
(dp1116
g54
(dp1117
g74
g75
ssg63
g1111
sg56
(lp1118
S'is_jython'
p1119
asbag49
(g70
g51
NtRp1120
(dp1121
g54
(dp1122
g81
g82
ssg63
g1111
sg56
(lp1123
S':'
asbag49
(g70
g51
NtRp1124
(dp1125
g54
(dp1126
sg63
g1111
sg56
(lp1127
g49
(g50
g51
NtRp1128
(dp1129
g54
(dp1130
g62
I4
ssg63
g1124
sg56
(lp1131
g92
asbasbasbag49
(g65
g51
NtRp1132
(dp1133
g54
(dp1134
sg63
g753
sg56
(lp1135
g49
(g70
g51
NtRp1136
(dp1137
g54
(dp1138
g74
g75
ssg63
g1132
sg56
(lp1139
S'is_pypy'
p1140
asbag49
(g70
g51
NtRp1141
(dp1142
g54
(dp1143
g81
g82
ssg63
g1132
sg56
(lp1144
S':'
asbag49
(g70
g51
NtRp1145
(dp1146
g54
(dp1147
sg63
g1132
sg56
(lp1148
g49
(g50
g51
NtRp1149
(dp1150
g54
(dp1151
g62
I4
ssg63
g1145
sg56
(lp1152
g92
asbasbasbag49
(g65
g51
NtRp1153
(dp1154
g54
(dp1155
sg63
g753
sg56
(lp1156
g49
(g70
g51
NtRp1157
(dp1158
g54
(dp1159
g74
g75
ssg63
g1153
sg56
(lp1160
S'path_info'
p1161
asbag49
(g70
g51
NtRp1162
(dp1163
g54
(dp1164
g81
g82
ssg63
g1153
sg56
(lp1165
S':'
asbag49
(g70
g51
NtRp1166
(dp1167
g54
(dp1168
sg63
g1153
sg56
(lp1169
g49
(g50
g51
NtRp1170
(dp1171
g54
(dp1172
g62
I4
ssg63
g1166
sg56
(lp1173
S'/ASA/default/add_points'
p1174
asbasbasbag49
(g65
g51
NtRp1175
(dp1176
g54
(dp1177
sg63
g753
sg56
(lp1178
g49
(g70
g51
NtRp1179
(dp1180
g54
(dp1181
g74
g75
ssg63
g1175
sg56
(lp1182
S'query_string'
p1183
asbag49
(g70
g51
NtRp1184
(dp1185
g54
(dp1186
g81
g82
ssg63
g1175
sg56
(lp1187
S':'
asbag49
(g70
g51
NtRp1188
(dp1189
g54
(dp1190
sg63
g1175
sg56
(lp1191
g49
(g50
g51
NtRp1192
(dp1193
g54
(dp1194
g62
I4
ssg63
g1188
sg56
(lp1195
S'id_prac=3?n?52.21867175163748?21.01392316792044?52.22056473998587?21.01641225788626?52.221143136998776?21.011691570020048?52.22293086195786?21.005340099072782?52.22240506797006?21.00242185566458'
p1196
asbasbasbag49
(g65
g51
NtRp1197
(dp1198
g54
(dp1199
sg63
g753
sg56
(lp1200
g49
(g70
g51
NtRp1201
(dp1202
g54
(dp1203
g74
g75
ssg63
g1197
sg56
(lp1204
S'remote_addr'
p1205
asbag49
(g70
g51
NtRp1206
(dp1207
g54
(dp1208
g81
g82
ssg63
g1197
sg56
(lp1209
S':'
asbag49
(g70
g51
NtRp1210
(dp1211
g54
(dp1212
sg63
g1197
sg56
(lp1213
g49
(g50
g51
NtRp1214
(dp1215
g54
(dp1216
g62
I4
ssg63
g1210
sg56
(lp1217
g182
asbasbasbag49
(g65
g51
NtRp1218
(dp1219
g54
(dp1220
sg63
g753
sg56
(lp1221
g49
(g70
g51
NtRp1222
(dp1223
g54
(dp1224
g74
g75
ssg63
g1218
sg56
(lp1225
S'remote_port'
p1226
asbag49
(g70
g51
NtRp1227
(dp1228
g54
(dp1229
g81
g82
ssg63
g1218
sg56
(lp1230
S':'
asbag49
(g70
g51
NtRp1231
(dp1232
g54
(dp1233
sg63
g1218
sg56
(lp1234
g49
(g50
g51
NtRp1235
(dp1236
g54
(dp1237
g62
I4
ssg63
g1231
sg56
(lp1238
S'49534'
p1239
asbasbasbag49
(g65
g51
NtRp1240
(dp1241
g54
(dp1242
sg63
g753
sg56
(lp1243
g49
(g70
g51
NtRp1244
(dp1245
g54
(dp1246
g74
g75
ssg63
g1240
sg56
(lp1247
S'request_method'
p1248
asbag49
(g70
g51
NtRp1249
(dp1250
g54
(dp1251
g81
g82
ssg63
g1240
sg56
(lp1252
S':'
asbag49
(g70
g51
NtRp1253
(dp1254
g54
(dp1255
sg63
g1240
sg56
(lp1256
g49
(g50
g51
NtRp1257
(dp1258
g54
(dp1259
g62
I4
ssg63
g1253
sg56
(lp1260
S'GET'
p1261
asbasbasbag49
(g65
g51
NtRp1262
(dp1263
g54
(dp1264
sg63
g753
sg56
(lp1265
g49
(g70
g51
NtRp1266
(dp1267
g54
(dp1268
g74
g75
ssg63
g1262
sg56
(lp1269
S'script_name'
p1270
asbag49
(g70
g51
NtRp1271
(dp1272
g54
(dp1273
g81
g82
ssg63
g1262
sg56
(lp1274
S':'
asbag49
(g70
g51
NtRp1275
(dp1276
g54
(dp1277
sg63
g1262
sg56
(lp1278
g49
(g50
g51
NtRp1279
(dp1280
g54
(dp1281
g62
I4
ssg63
g1275
sg56
(lp1282
S''
asbasbasbag49
(g65
g51
NtRp1283
(dp1284
g54
(dp1285
sg63
g753
sg56
(lp1286
g49
(g70
g51
NtRp1287
(dp1288
g54
(dp1289
g74
g75
ssg63
g1283
sg56
(lp1290
S'server_name'
p1291
asbag49
(g70
g51
NtRp1292
(dp1293
g54
(dp1294
g81
g82
ssg63
g1283
sg56
(lp1295
S':'
asbag49
(g70
g51
NtRp1296
(dp1297
g54
(dp1298
sg63
g1283
sg56
(lp1299
g49
(g50
g51
NtRp1300
(dp1301
g54
(dp1302
g62
I4
ssg63
g1296
sg56
(lp1303
S'hyden-PC'
p1304
asbasbasbag49
(g65
g51
NtRp1305
(dp1306
g54
(dp1307
sg63
g753
sg56
(lp1308
g49
(g70
g51
NtRp1309
(dp1310
g54
(dp1311
g74
g75
ssg63
g1305
sg56
(lp1312
S'server_port'
p1313
asbag49
(g70
g51
NtRp1314
(dp1315
g54
(dp1316
g81
g82
ssg63
g1305
sg56
(lp1317
S':'
asbag49
(g70
g51
NtRp1318
(dp1319
g54
(dp1320
sg63
g1305
sg56
(lp1321
g49
(g50
g51
NtRp1322
(dp1323
g54
(dp1324
g62
I4
ssg63
g1318
sg56
(lp1325
S'8000'
p1326
asbasbasbag49
(g65
g51
NtRp1327
(dp1328
g54
(dp1329
sg63
g753
sg56
(lp1330
g49
(g70
g51
NtRp1331
(dp1332
g54
(dp1333
g74
g75
ssg63
g1327
sg56
(lp1334
S'server_protocol'
p1335
asbag49
(g70
g51
NtRp1336
(dp1337
g54
(dp1338
g81
g82
ssg63
g1327
sg56
(lp1339
S':'
asbag49
(g70
g51
NtRp1340
(dp1341
g54
(dp1342
sg63
g1327
sg56
(lp1343
g49
(g50
g51
NtRp1344
(dp1345
g54
(dp1346
g62
I4
ssg63
g1340
sg56
(lp1347
S'HTTP/1.1'
p1348
asbasbasbag49
(g65
g51
NtRp1349
(dp1350
g54
(dp1351
sg63
g753
sg56
(lp1352
g49
(g70
g51
NtRp1353
(dp1354
g54
(dp1355
g74
g75
ssg63
g1349
sg56
(lp1356
S'server_software'
p1357
asbag49
(g70
g51
NtRp1358
(dp1359
g54
(dp1360
g81
g82
ssg63
g1349
sg56
(lp1361
S':'
asbag49
(g70
g51
NtRp1362
(dp1363
g54
(dp1364
sg63
g1349
sg56
(lp1365
g49
(g50
g51
NtRp1366
(dp1367
g54
(dp1368
g62
I4
ssg63
g1362
sg56
(lp1369
S'Rocket 1.2.4'
p1370
asbasbasbag49
(g65
g51
NtRp1371
(dp1372
g54
(dp1373
sg63
g753
sg56
(lp1374
g49
(g70
g51
NtRp1375
(dp1376
g54
(dp1377
g74
g75
ssg63
g1371
sg56
(lp1378
S'web2py_crontype'
p1379
asbag49
(g70
g51
NtRp1380
(dp1381
g54
(dp1382
g81
g82
ssg63
g1371
sg56
(lp1383
S':'
asbag49
(g70
g51
NtRp1384
(dp1385
g54
(dp1386
sg63
g1371
sg56
(lp1387
g49
(g50
g51
NtRp1388
(dp1389
g54
(dp1390
g62
I4
ssg63
g1384
sg56
(lp1391
S'hard'
p1392
asbasbasbag49
(g65
g51
NtRp1393
(dp1394
g54
(dp1395
sg63
g753
sg56
(lp1396
g49
(g70
g51
NtRp1397
(dp1398
g54
(dp1399
g74
g75
ssg63
g1393
sg56
(lp1400
S'web2py_path'
p1401
asbag49
(g70
g51
NtRp1402
(dp1403
g54
(dp1404
g81
g82
ssg63
g1393
sg56
(lp1405
S':'
asbag49
(g70
g51
NtRp1406
(dp1407
g54
(dp1408
sg63
g1393
sg56
(lp1409
g49
(g50
g51
NtRp1410
(dp1411
g54
(dp1412
g62
I4
ssg63
g1406
sg56
(lp1413
g800
asbasbasbag49
(g65
g51
NtRp1414
(dp1415
g54
(dp1416
sg63
g753
sg56
(lp1417
g49
(g70
g51
NtRp1418
(dp1419
g54
(dp1420
g74
g75
ssg63
g1414
sg56
(lp1421
S'web2py_version'
p1422
asbag49
(g70
g51
NtRp1423
(dp1424
g54
(dp1425
g81
g82
ssg63
g1414
sg56
(lp1426
S':'
asbag49
(g70
g51
NtRp1427
(dp1428
g54
(dp1429
sg63
g1414
sg56
(lp1430
g49
(g50
g51
NtRp1431
(dp1432
g54
(dp1433
g62
I4
ssg63
g1427
sg56
(lp1434
g49
(g58
g51
NtRp1435
(dp1436
g54
(dp1437
g62
I3
ssg63
Nsg56
(lp1438
g49
(g65
g51
NtRp1439
(dp1440
g54
(dp1441
sg63
g1435
sg56
(lp1442
g49
(g70
g51
NtRp1443
(dp1444
g54
(dp1445
sg63
g1439
sg56
(lp1446
g49
(g50
g51
NtRp1447
(dp1448
g54
(dp1449
g62
I3
ssg63
g1443
sg56
(lp1450
S'1'
asbasbasbag49
(g65
g51
NtRp1451
(dp1452
g54
(dp1453
sg63
g1435
sg56
(lp1454
g49
(g70
g51
NtRp1455
(dp1456
g54
(dp1457
sg63
g1451
sg56
(lp1458
g49
(g50
g51
NtRp1459
(dp1460
g54
(dp1461
g62
I3
ssg63
g1455
sg56
(lp1462
S'99'
p1463
asbasbasbag49
(g65
g51
NtRp1464
(dp1465
g54
(dp1466
sg63
g1435
sg56
(lp1467
g49
(g70
g51
NtRp1468
(dp1469
g54
(dp1470
sg63
g1464
sg56
(lp1471
g49
(g50
g51
NtRp1472
(dp1473
g54
(dp1474
g62
I3
ssg63
g1468
sg56
(lp1475
S'4'
asbasbasbag49
(g65
g51
NtRp1476
(dp1477
g54
(dp1478
sg63
g1435
sg56
(lp1479
g49
(g70
g51
NtRp1480
(dp1481
g54
(dp1482
sg63
g1476
sg56
(lp1483
g49
(g50
g51
NtRp1484
(dp1485
g54
(dp1486
g62
I3
ssg63
g1480
sg56
(lp1487
S'datetime.datetime(2011, 12, 14, 14, 46, 14)'
p1488
asbasbasbag49
(g65
g51
NtRp1489
(dp1490
g54
(dp1491
sg63
g1435
sg56
(lp1492
g49
(g70
g51
NtRp1493
(dp1494
g54
(dp1495
sg63
g1489
sg56
(lp1496
g49
(g50
g51
NtRp1497
(dp1498
g54
(dp1499
g62
I3
ssg63
g1493
sg56
(lp1500
S'stable'
p1501
asbasbasbasbasbasbasbag49
(g65
g51
NtRp1502
(dp1503
g54
(dp1504
sg63
g753
sg56
(lp1505
g49
(g70
g51
NtRp1506
(dp1507
g54
(dp1508
g74
g75
ssg63
g1502
sg56
(lp1509
S'wsgi_errors'
p1510
asbag49
(g70
g51
NtRp1511
(dp1512
g54
(dp1513
g81
g82
ssg63
g1502
sg56
(lp1514
S':'
asbag49
(g70
g51
NtRp1515
(dp1516
g54
(dp1517
sg63
g1502
sg56
(lp1518
g49
(g50
g51
NtRp1519
(dp1520
g54
(dp1521
g62
I4
ssg63
g1515
sg56
(lp1522
S"<open file '<stderr>', mode 'w' at 0x002C00B0>"
p1523
asbasbasbag49
(g65
g51
NtRp1524
(dp1525
g54
(dp1526
sg63
g753
sg56
(lp1527
g49
(g70
g51
NtRp1528
(dp1529
g54
(dp1530
g74
g75
ssg63
g1524
sg56
(lp1531
S'wsgi_file_wrapper'
p1532
asbag49
(g70
g51
NtRp1533
(dp1534
g54
(dp1535
g81
g82
ssg63
g1524
sg56
(lp1536
S':'
asbag49
(g70
g51
NtRp1537
(dp1538
g54
(dp1539
sg63
g1524
sg56
(lp1540
g49
(g50
g51
NtRp1541
(dp1542
g54
(dp1543
g62
I4
ssg63
g1537
sg56
(lp1544
S'<class wsgiref.util.FileWrapper at 0x0210FCF0>'
p1545
asbasbasbag49
(g65
g51
NtRp1546
(dp1547
g54
(dp1548
sg63
g753
sg56
(lp1549
g49
(g70
g51
NtRp1550
(dp1551
g54
(dp1552
g74
g75
ssg63
g1546
sg56
(lp1553
S'wsgi_input'
p1554
asbag49
(g70
g51
NtRp1555
(dp1556
g54
(dp1557
g81
g82
ssg63
g1546
sg56
(lp1558
S':'
asbag49
(g70
g51
NtRp1559
(dp1560
g54
(dp1561
sg63
g1546
sg56
(lp1562
g49
(g50
g51
NtRp1563
(dp1564
g54
(dp1565
g62
I4
ssg63
g1559
sg56
(lp1566
S'<socket._fileobject object at 0x061225B0>'
p1567
asbasbasbag49
(g65
g51
NtRp1568
(dp1569
g54
(dp1570
sg63
g753
sg56
(lp1571
g49
(g70
g51
NtRp1572
(dp1573
g54
(dp1574
g74
g75
ssg63
g1568
sg56
(lp1575
S'wsgi_multiprocess'
p1576
asbag49
(g70
g51
NtRp1577
(dp1578
g54
(dp1579
g81
g82
ssg63
g1568
sg56
(lp1580
S':'
asbag49
(g70
g51
NtRp1581
(dp1582
g54
(dp1583
sg63
g1568
sg56
(lp1584
g49
(g50
g51
NtRp1585
(dp1586
g54
(dp1587
g62
I4
ssg63
g1581
sg56
(lp1588
g92
asbasbasbag49
(g65
g51
NtRp1589
(dp1590
g54
(dp1591
sg63
g753
sg56
(lp1592
g49
(g70
g51
NtRp1593
(dp1594
g54
(dp1595
g74
g75
ssg63
g1589
sg56
(lp1596
S'wsgi_multithread'
p1597
asbag49
(g70
g51
NtRp1598
(dp1599
g54
(dp1600
g81
g82
ssg63
g1589
sg56
(lp1601
S':'
asbag49
(g70
g51
NtRp1602
(dp1603
g54
(dp1604
sg63
g1589
sg56
(lp1605
g49
(g50
g51
NtRp1606
(dp1607
g54
(dp1608
g62
I4
ssg63
g1602
sg56
(lp1609
S'True'
p1610
asbasbasbag49
(g65
g51
NtRp1611
(dp1612
g54
(dp1613
sg63
g753
sg56
(lp1614
g49
(g70
g51
NtRp1615
(dp1616
g54
(dp1617
g74
g75
ssg63
g1611
sg56
(lp1618
S'wsgi_run_once'
p1619
asbag49
(g70
g51
NtRp1620
(dp1621
g54
(dp1622
g81
g82
ssg63
g1611
sg56
(lp1623
S':'
asbag49
(g70
g51
NtRp1624
(dp1625
g54
(dp1626
sg63
g1611
sg56
(lp1627
g49
(g50
g51
NtRp1628
(dp1629
g54
(dp1630
g62
I4
ssg63
g1624
sg56
(lp1631
g92
asbasbasbag49
(g65
g51
NtRp1632
(dp1633
g54
(dp1634
sg63
g753
sg56
(lp1635
g49
(g70
g51
NtRp1636
(dp1637
g54
(dp1638
g74
g75
ssg63
g1632
sg56
(lp1639
S'wsgi_url_scheme'
p1640
asbag49
(g70
g51
NtRp1641
(dp1642
g54
(dp1643
g81
g82
ssg63
g1632
sg56
(lp1644
S':'
asbag49
(g70
g51
NtRp1645
(dp1646
g54
(dp1647
sg63
g1632
sg56
(lp1648
g49
(g50
g51
NtRp1649
(dp1650
g54
(dp1651
g62
I4
ssg63
g1645
sg56
(lp1652
S'http'
p1653
asbasbasbag49
(g65
g51
NtRp1654
(dp1655
g54
(dp1656
sg63
g753
sg56
(lp1657
g49
(g70
g51
NtRp1658
(dp1659
g54
(dp1660
g74
g75
ssg63
g1654
sg56
(lp1661
S'wsgi_version'
p1662
asbag49
(g70
g51
NtRp1663
(dp1664
g54
(dp1665
g81
g82
ssg63
g1654
sg56
(lp1666
S':'
asbag49
(g70
g51
NtRp1667
(dp1668
g54
(dp1669
sg63
g1654
sg56
(lp1670
g49
(g50
g51
NtRp1671
(dp1672
g54
(dp1673
g62
I4
ssg63
g1667
sg56
(lp1674
g49
(g58
g51
NtRp1675
(dp1676
g54
(dp1677
g62
I3
ssg63
Nsg56
(lp1678
g49
(g65
g51
NtRp1679
(dp1680
g54
(dp1681
sg63
g1675
sg56
(lp1682
g49
(g70
g51
NtRp1683
(dp1684
g54
(dp1685
sg63
g1679
sg56
(lp1686
g49
(g50
g51
NtRp1687
(dp1688
g54
(dp1689
g62
I3
ssg63
g1683
sg56
(lp1690
S'1'
asbasbasbag49
(g65
g51
NtRp1691
(dp1692
g54
(dp1693
sg63
g1675
sg56
(lp1694
g49
(g70
g51
NtRp1695
(dp1696
g54
(dp1697
sg63
g1691
sg56
(lp1698
g49
(g50
g51
NtRp1699
(dp1700
g54
(dp1701
g62
I3
ssg63
g1695
sg56
(lp1702
S'0'
asbasbasbasbasbasbasbasbasbasbasbag49
(g65
g51
NtRp1703
(dp1704
g54
(dp1705
sg63
g59
sg56
(lp1706
g49
(g70
g51
NtRp1707
(dp1708
g54
(dp1709
g74
g75
ssg63
g1703
sg56
(lp1710
S'extension'
p1711
asbag49
(g70
g51
NtRp1712
(dp1713
g54
(dp1714
g81
g82
ssg63
g1703
sg56
(lp1715
S':'
asbag49
(g70
g51
NtRp1716
(dp1717
g54
(dp1718
sg63
g1703
sg56
(lp1719
g49
(g50
g51
NtRp1720
(dp1721
g54
(dp1722
g62
I5
ssg63
g1716
sg56
(lp1723
S'html'
p1724
asbasbasbag49
(g65
g51
NtRp1725
(dp1726
g54
(dp1727
sg63
g59
sg56
(lp1728
g49
(g70
g51
NtRp1729
(dp1730
g54
(dp1731
g74
g75
ssg63
g1725
sg56
(lp1732
S'folder'
p1733
asbag49
(g70
g51
NtRp1734
(dp1735
g54
(dp1736
g81
g82
ssg63
g1725
sg56
(lp1737
S':'
asbag49
(g70
g51
NtRp1738
(dp1739
g54
(dp1740
sg63
g1725
sg56
(lp1741
g49
(g50
g51
NtRp1742
(dp1743
g54
(dp1744
g62
I5
ssg63
g1738
sg56
(lp1745
S'D:\\UCZELNIA\\ELKA\\tin\\web2py\\web2py_win\\web2py\\applications\\ASA\\'
p1746
asbasbasbag49
(g65
g51
NtRp1747
(dp1748
g54
(dp1749
sg63
g59
sg56
(lp1750
g49
(g70
g51
NtRp1751
(dp1752
g54
(dp1753
g74
g75
ssg63
g1747
sg56
(lp1754
S'function'
p1755
asbag49
(g70
g51
NtRp1756
(dp1757
g54
(dp1758
g81
g82
ssg63
g1747
sg56
(lp1759
S':'
asbag49
(g70
g51
NtRp1760
(dp1761
g54
(dp1762
sg63
g1747
sg56
(lp1763
g49
(g50
g51
NtRp1764
(dp1765
g54
(dp1766
g62
I5
ssg63
g1760
sg56
(lp1767
S'add_points'
p1768
asbasbasbag49
(g65
g51
NtRp1769
(dp1770
g54
(dp1771
sg63
g59
sg56
(lp1772
g49
(g70
g51
NtRp1773
(dp1774
g54
(dp1775
g74
g75
ssg63
g1769
sg56
(lp1776
S'get_vars'
p1777
asbag49
(g70
g51
NtRp1778
(dp1779
g54
(dp1780
g81
g82
ssg63
g1769
sg56
(lp1781
S':'
asbag49
(g70
g51
NtRp1782
(dp1783
g54
(dp1784
sg63
g1769
sg56
(lp1785
g49
(g50
g51
NtRp1786
(dp1787
g54
(dp1788
g62
I5
ssg63
g1782
sg56
(lp1789
g49
(g58
g51
NtRp1790
(dp1791
g54
(dp1792
g62
I4
ssg63
Nsg56
(lp1793
g49
(g65
g51
NtRp1794
(dp1795
g54
(dp1796
sg63
g1790
sg56
(lp1797
g49
(g70
g51
NtRp1798
(dp1799
g54
(dp1800
g74
g75
ssg63
g1794
sg56
(lp1801
S'id_prac'
p1802
asbag49
(g70
g51
NtRp1803
(dp1804
g54
(dp1805
g81
g82
ssg63
g1794
sg56
(lp1806
S':'
asbag49
(g70
g51
NtRp1807
(dp1808
g54
(dp1809
sg63
g1794
sg56
(lp1810
g49
(g50
g51
NtRp1811
(dp1812
g54
(dp1813
g62
I4
ssg63
g1807
sg56
(lp1814
S'3?n?52.21867175163748?21.01392316792044?52.22056473998587?21.01641225788626?52.221143136998776?21.011691570020048?52.22293086195786?21.005340099072782?52.22240506797006?21.00242185566458'
p1815
asbasbasbasbasbasbasbag49
(g65
g51
NtRp1816
(dp1817
g54
(dp1818
sg63
g59
sg56
(lp1819
g49
(g70
g51
NtRp1820
(dp1821
g54
(dp1822
g74
g75
ssg63
g1816
sg56
(lp1823
S'global_settings'
p1824
asbag49
(g70
g51
NtRp1825
(dp1826
g54
(dp1827
g81
g82
ssg63
g1816
sg56
(lp1828
S':'
asbag49
(g70
g51
NtRp1829
(dp1830
g54
(dp1831
sg63
g1816
sg56
(lp1832
g49
(g50
g51
NtRp1833
(dp1834
g54
(dp1835
g62
I5
ssg63
g1829
sg56
(lp1836
g49
(g58
g51
NtRp1837
(dp1838
g54
(dp1839
g62
I4
ssg63
Nsg56
(lp1840
g49
(g65
g51
NtRp1841
(dp1842
g54
(dp1843
sg63
g1837
sg56
(lp1844
g49
(g70
g51
NtRp1845
(dp1846
g54
(dp1847
g74
g75
ssg63
g1841
sg56
(lp1848
g765
asbag49
(g70
g51
NtRp1849
(dp1850
g54
(dp1851
g81
g82
ssg63
g1841
sg56
(lp1852
S':'
asbag49
(g70
g51
NtRp1853
(dp1854
g54
(dp1855
sg63
g1841
sg56
(lp1856
g49
(g50
g51
NtRp1857
(dp1858
g54
(dp1859
g62
I4
ssg63
g1853
sg56
(lp1860
S"set(['D:\\\\UCZELNIA\\\\ELKA\\\\tin\\\\web2py\\\\web2py_win\\\\web2py\\\\applications\\\\welcome\\\\', 'D:\\\\UCZELNIA\\\\ELKA\\\\tin\\\\web2py\\\\web2py_win\\\\web2py\\\\applications\\\\admin\\\\', 'D:\\\\UCZELNIA\\\\ELKA\\\\tin\\\\web2py\\\\web2py_win\\\\web2py\\\\applications\\\\ASA\\\\'])"
p1861
asbasbasbag49
(g65
g51
NtRp1862
(dp1863
g54
(dp1864
sg63
g1837
sg56
(lp1865
g49
(g70
g51
NtRp1866
(dp1867
g54
(dp1868
g74
g75
ssg63
g1862
sg56
(lp1869
g787
asbag49
(g70
g51
NtRp1870
(dp1871
g54
(dp1872
g81
g82
ssg63
g1862
sg56
(lp1873
S':'
asbag49
(g70
g51
NtRp1874
(dp1875
g54
(dp1876
sg63
g1862
sg56
(lp1877
g49
(g50
g51
NtRp1878
(dp1879
g54
(dp1880
g62
I4
ssg63
g1874
sg56
(lp1881
g800
asbasbasbag49
(g65
g51
NtRp1882
(dp1883
g54
(dp1884
sg63
g1837
sg56
(lp1885
g49
(g70
g51
NtRp1886
(dp1887
g54
(dp1888
g74
g75
ssg63
g1882
sg56
(lp1889
g809
asbag49
(g70
g51
NtRp1890
(dp1891
g54
(dp1892
g81
g82
ssg63
g1882
sg56
(lp1893
S':'
asbag49
(g70
g51
NtRp1894
(dp1895
g54
(dp1896
sg63
g1882
sg56
(lp1897
g49
(g50
g51
NtRp1898
(dp1899
g54
(dp1900
g62
I4
ssg63
g1894
sg56
(lp1901
g49
(g58
g51
NtRp1902
(dp1903
g54
(dp1904
g62
I3
ssg63
Nsg56
(lp1905
sbasbasbasbag49
(g65
g51
NtRp1906
(dp1907
g54
(dp1908
sg63
g1837
sg56
(lp1909
g49
(g70
g51
NtRp1910
(dp1911
g54
(dp1912
g74
g75
ssg63
g1906
sg56
(lp1913
g834
asbag49
(g70
g51
NtRp1914
(dp1915
g54
(dp1916
g81
g82
ssg63
g1906
sg56
(lp1917
S':'
asbag49
(g70
g51
NtRp1918
(dp1919
g54
(dp1920
sg63
g1906
sg56
(lp1921
g49
(g50
g51
NtRp1922
(dp1923
g54
(dp1924
g62
I4
ssg63
g1918
sg56
(lp1925
S"<Values at 0x2cfc300: {'verbose': False, 'ip': '127.0.0.1', 'shutdown_timeout': 5, 'taskbar': False, 'nocron': False, 'pid_filename': 'httpserver.pid', 'maxthreads': None, 'softcron': False, 'server_name': 'hyden-PC', 'bpython': False, 'nogui': False, 'port': 8000, 'extcron': False, 'debuglevel': 30, 'test': None, 'folder': 'D:\\\\UCZELNIA\\\\ELKA\\\\tin\\\\web2py\\\\web2py_win\\\\web2py', 'config': '', 'import_models': False, 'winservice': '', 'shell': None, 'run': '', 'log_filename': 'httpserver.log', 'args': [''], 'socket_timeout': 1, 'ssl_ca_certificate': None, 'scheduler': None, 'profiler_filename': None, 'ssl_private_key': '', 'password': '<ask>', 'request_queue_size': 5, 'ssl_certificate': '', 'cronjob': False, 'numthreads': None, 'quiet': False, 'interfaces': None, 'minthreads': None, 'timeout': 10, 'plain': False, 'nobanner': False}>"
p1926
asbasbasbag49
(g65
g51
NtRp1927
(dp1928
g54
(dp1929
sg63
g1837
sg56
(lp1930
g49
(g70
g51
NtRp1931
(dp1932
g54
(dp1933
g74
g75
ssg63
g1927
sg56
(lp1934
g856
asbag49
(g70
g51
NtRp1935
(dp1936
g54
(dp1937
g81
g82
ssg63
g1927
sg56
(lp1938
S':'
asbag49
(g70
g51
NtRp1939
(dp1940
g54
(dp1941
sg63
g1927
sg56
(lp1942
g49
(g50
g51
NtRp1943
(dp1944
g54
(dp1945
g62
I4
ssg63
g1939
sg56
(lp1946
S'set([])'
p1947
asbasbasbag49
(g65
g51
NtRp1948
(dp1949
g54
(dp1950
sg63
g1837
sg56
(lp1951
g49
(g70
g51
NtRp1952
(dp1953
g54
(dp1954
g74
g75
ssg63
g1948
sg56
(lp1955
g878
asbag49
(g70
g51
NtRp1956
(dp1957
g54
(dp1958
g81
g82
ssg63
g1948
sg56
(lp1959
S':'
asbag49
(g70
g51
NtRp1960
(dp1961
g54
(dp1962
sg63
g1948
sg56
(lp1963
g49
(g50
g51
NtRp1964
(dp1965
g54
(dp1966
g62
I4
ssg63
g1960
sg56
(lp1967
g92
asbasbasbag49
(g65
g51
NtRp1968
(dp1969
g54
(dp1970
sg63
g1837
sg56
(lp1971
g49
(g70
g51
NtRp1972
(dp1973
g54
(dp1974
g74
g75
ssg63
g1968
sg56
(lp1975
g899
asbag49
(g70
g51
NtRp1976
(dp1977
g54
(dp1978
g81
g82
ssg63
g1968
sg56
(lp1979
S':'
asbag49
(g70
g51
NtRp1980
(dp1981
g54
(dp1982
sg63
g1968
sg56
(lp1983
g49
(g50
g51
NtRp1984
(dp1985
g54
(dp1986
g62
I4
ssg63
g1980
sg56
(lp1987
g912
asbasbasbag49
(g65
g51
NtRp1988
(dp1989
g54
(dp1990
sg63
g1837
sg56
(lp1991
g49
(g70
g51
NtRp1992
(dp1993
g54
(dp1994
g74
g75
ssg63
g1988
sg56
(lp1995
g1119
asbag49
(g70
g51
NtRp1996
(dp1997
g54
(dp1998
g81
g82
ssg63
g1988
sg56
(lp1999
S':'
asbag49
(g70
g51
NtRp2000
(dp2001
g54
(dp2002
sg63
g1988
sg56
(lp2003
g49
(g50
g51
NtRp2004
(dp2005
g54
(dp2006
g62
I4
ssg63
g2000
sg56
(lp2007
g92
asbasbasbag49
(g65
g51
NtRp2008
(dp2009
g54
(dp2010
sg63
g1837
sg56
(lp2011
g49
(g70
g51
NtRp2012
(dp2013
g54
(dp2014
g74
g75
ssg63
g2008
sg56
(lp2015
g1140
asbag49
(g70
g51
NtRp2016
(dp2017
g54
(dp2018
g81
g82
ssg63
g2008
sg56
(lp2019
S':'
asbag49
(g70
g51
NtRp2020
(dp2021
g54
(dp2022
sg63
g2008
sg56
(lp2023
g49
(g50
g51
NtRp2024
(dp2025
g54
(dp2026
g62
I4
ssg63
g2020
sg56
(lp2027
g92
asbasbasbag49
(g65
g51
NtRp2028
(dp2029
g54
(dp2030
sg63
g1837
sg56
(lp2031
g49
(g70
g51
NtRp2032
(dp2033
g54
(dp2034
g74
g75
ssg63
g2028
sg56
(lp2035
g1379
asbag49
(g70
g51
NtRp2036
(dp2037
g54
(dp2038
g81
g82
ssg63
g2028
sg56
(lp2039
S':'
asbag49
(g70
g51
NtRp2040
(dp2041
g54
(dp2042
sg63
g2028
sg56
(lp2043
g49
(g50
g51
NtRp2044
(dp2045
g54
(dp2046
g62
I4
ssg63
g2040
sg56
(lp2047
g1392
asbasbasbag49
(g65
g51
NtRp2048
(dp2049
g54
(dp2050
sg63
g1837
sg56
(lp2051
g49
(g70
g51
NtRp2052
(dp2053
g54
(dp2054
g74
g75
ssg63
g2048
sg56
(lp2055
g1422
asbag49
(g70
g51
NtRp2056
(dp2057
g54
(dp2058
g81
g82
ssg63
g2048
sg56
(lp2059
S':'
asbag49
(g70
g51
NtRp2060
(dp2061
g54
(dp2062
sg63
g2048
sg56
(lp2063
g49
(g50
g51
NtRp2064
(dp2065
g54
(dp2066
g62
I4
ssg63
g2060
sg56
(lp2067
g49
(g58
g51
NtRp2068
(dp2069
g54
(dp2070
g62
I3
ssg63
Nsg56
(lp2071
g49
(g65
g51
NtRp2072
(dp2073
g54
(dp2074
sg63
g2068
sg56
(lp2075
g49
(g70
g51
NtRp2076
(dp2077
g54
(dp2078
sg63
g2072
sg56
(lp2079
g49
(g50
g51
NtRp2080
(dp2081
g54
(dp2082
g62
I3
ssg63
g2076
sg56
(lp2083
S'1'
asbasbasbag49
(g65
g51
NtRp2084
(dp2085
g54
(dp2086
sg63
g2068
sg56
(lp2087
g49
(g70
g51
NtRp2088
(dp2089
g54
(dp2090
sg63
g2084
sg56
(lp2091
g49
(g50
g51
NtRp2092
(dp2093
g54
(dp2094
g62
I3
ssg63
g2088
sg56
(lp2095
S'99'
p2096
asbasbasbag49
(g65
g51
NtRp2097
(dp2098
g54
(dp2099
sg63
g2068
sg56
(lp2100
g49
(g70
g51
NtRp2101
(dp2102
g54
(dp2103
sg63
g2097
sg56
(lp2104
g49
(g50
g51
NtRp2105
(dp2106
g54
(dp2107
g62
I3
ssg63
g2101
sg56
(lp2108
S'4'
asbasbasbag49
(g65
g51
NtRp2109
(dp2110
g54
(dp2111
sg63
g2068
sg56
(lp2112
g49
(g70
g51
NtRp2113
(dp2114
g54
(dp2115
sg63
g2109
sg56
(lp2116
g49
(g50
g51
NtRp2117
(dp2118
g54
(dp2119
g62
I3
ssg63
g2113
sg56
(lp2120
S'datetime.datetime(2011, 12, 14, 14, 46, 14)'
p2121
asbasbasbag49
(g65
g51
NtRp2122
(dp2123
g54
(dp2124
sg63
g2068
sg56
(lp2125
g49
(g70
g51
NtRp2126
(dp2127
g54
(dp2128
sg63
g2122
sg56
(lp2129
g49
(g50
g51
NtRp2130
(dp2131
g54
(dp2132
g62
I3
ssg63
g2126
sg56
(lp2133
g1501
asbasbasbasbasbasbasbasbasbasbasbag49
(g65
g51
NtRp2134
(dp2135
g54
(dp2136
sg63
g59
sg56
(lp2137
g49
(g70
g51
NtRp2138
(dp2139
g54
(dp2140
g74
g75
ssg63
g2134
sg56
(lp2141
S'is_https'
p2142
asbag49
(g70
g51
NtRp2143
(dp2144
g54
(dp2145
g81
g82
ssg63
g2134
sg56
(lp2146
S':'
asbag49
(g70
g51
NtRp2147
(dp2148
g54
(dp2149
sg63
g2134
sg56
(lp2150
g49
(g50
g51
NtRp2151
(dp2152
g54
(dp2153
g62
I5
ssg63
g2147
sg56
(lp2154
g92
asbasbasbag49
(g65
g51
NtRp2155
(dp2156
g54
(dp2157
sg63
g59
sg56
(lp2158
g49
(g70
g51
NtRp2159
(dp2160
g54
(dp2161
g74
g75
ssg63
g2155
sg56
(lp2162
S'is_local'
p2163
asbag49
(g70
g51
NtRp2164
(dp2165
g54
(dp2166
g81
g82
ssg63
g2155
sg56
(lp2167
S':'
asbag49
(g70
g51
NtRp2168
(dp2169
g54
(dp2170
sg63
g2155
sg56
(lp2171
g49
(g50
g51
NtRp2172
(dp2173
g54
(dp2174
g62
I5
ssg63
g2168
sg56
(lp2175
g1610
asbasbasbag49
(g65
g51
NtRp2176
(dp2177
g54
(dp2178
sg63
g59
sg56
(lp2179
g49
(g70
g51
NtRp2180
(dp2181
g54
(dp2182
g74
g75
ssg63
g2176
sg56
(lp2183
S'is_restful'
p2184
asbag49
(g70
g51
NtRp2185
(dp2186
g54
(dp2187
g81
g82
ssg63
g2176
sg56
(lp2188
S':'
asbag49
(g70
g51
NtRp2189
(dp2190
g54
(dp2191
sg63
g2176
sg56
(lp2192
g49
(g50
g51
NtRp2193
(dp2194
g54
(dp2195
g62
I5
ssg63
g2189
sg56
(lp2196
g92
asbasbasbag49
(g65
g51
NtRp2197
(dp2198
g54
(dp2199
sg63
g59
sg56
(lp2200
g49
(g70
g51
NtRp2201
(dp2202
g54
(dp2203
g74
g75
ssg63
g2197
sg56
(lp2204
S'now'
p2205
asbag49
(g70
g51
NtRp2206
(dp2207
g54
(dp2208
g81
g82
ssg63
g2197
sg56
(lp2209
S':'
asbag49
(g70
g51
NtRp2210
(dp2211
g54
(dp2212
sg63
g2197
sg56
(lp2213
g49
(g50
g51
NtRp2214
(dp2215
g54
(dp2216
g62
I5
ssg63
g2210
sg56
(lp2217
S'datetime.datetime(2012, 1, 9, 17, 53, 9, 937000)'
p2218
asbasbasbag49
(g65
g51
NtRp2219
(dp2220
g54
(dp2221
sg63
g59
sg56
(lp2222
g49
(g70
g51
NtRp2223
(dp2224
g54
(dp2225
g74
g75
ssg63
g2219
sg56
(lp2226
S'post_vars'
p2227
asbag49
(g70
g51
NtRp2228
(dp2229
g54
(dp2230
g81
g82
ssg63
g2219
sg56
(lp2231
S':'
asbag49
(g70
g51
NtRp2232
(dp2233
g54
(dp2234
sg63
g2219
sg56
(lp2235
g49
(g50
g51
NtRp2236
(dp2237
g54
(dp2238
g62
I5
ssg63
g2232
sg56
(lp2239
g49
(g58
g51
NtRp2240
(dp2241
g54
(dp2242
g62
I4
ssg63
Nsg56
(lp2243
sbasbasbasbag49
(g65
g51
NtRp2244
(dp2245
g54
(dp2246
sg63
g59
sg56
(lp2247
g49
(g70
g51
NtRp2248
(dp2249
g54
(dp2250
g74
g75
ssg63
g2244
sg56
(lp2251
S'url'
p2252
asbag49
(g70
g51
NtRp2253
(dp2254
g54
(dp2255
g81
g82
ssg63
g2244
sg56
(lp2256
S':'
asbag49
(g70
g51
NtRp2257
(dp2258
g54
(dp2259
sg63
g2244
sg56
(lp2260
g49
(g50
g51
NtRp2261
(dp2262
g54
(dp2263
g62
I5
ssg63
g2257
sg56
(lp2264
S'/ASA/default/add_points'
p2265
asbasbasbag49
(g65
g51
NtRp2266
(dp2267
g54
(dp2268
sg63
g59
sg56
(lp2269
g49
(g70
g51
NtRp2270
(dp2271
g54
(dp2272
g74
g75
ssg63
g2266
sg56
(lp2273
S'utcnow'
p2274
asbag49
(g70
g51
NtRp2275
(dp2276
g54
(dp2277
g81
g82
ssg63
g2266
sg56
(lp2278
S':'
asbag49
(g70
g51
NtRp2279
(dp2280
g54
(dp2281
sg63
g2266
sg56
(lp2282
g49
(g50
g51
NtRp2283
(dp2284
g54
(dp2285
g62
I5
ssg63
g2279
sg56
(lp2286
S'datetime.datetime(2012, 1, 9, 16, 53, 9, 937000)'
p2287
asbasbasbag49
(g65
g51
NtRp2288
(dp2289
g54
(dp2290
sg63
g59
sg56
(lp2291
g49
(g70
g51
NtRp2292
(dp2293
g54
(dp2294
g74
g75
ssg63
g2288
sg56
(lp2295
S'uuid'
p2296
asbag49
(g70
g51
NtRp2297
(dp2298
g54
(dp2299
g81
g82
ssg63
g2288
sg56
(lp2300
S':'
asbag49
(g70
g51
NtRp2301
(dp2302
g54
(dp2303
sg63
g2288
sg56
(lp2304
g49
(g50
g51
NtRp2305
(dp2306
g54
(dp2307
g62
I5
ssg63
g2301
sg56
(lp2308
S'ASA/127.0.0.1.2012-01-09.17-53-09.e4bf6b74-f8c6-4327-a06e-648137db6744'
p2309
asbasbasbag49
(g65
g51
NtRp2310
(dp2311
g54
(dp2312
sg63
g59
sg56
(lp2313
g49
(g70
g51
NtRp2314
(dp2315
g54
(dp2316
g74
g75
ssg63
g2310
sg56
(lp2317
S'vars'
p2318
asbag49
(g70
g51
NtRp2319
(dp2320
g54
(dp2321
g81
g82
ssg63
g2310
sg56
(lp2322
S':'
asbag49
(g70
g51
NtRp2323
(dp2324
g54
(dp2325
sg63
g2310
sg56
(lp2326
g49
(g50
g51
NtRp2327
(dp2328
g54
(dp2329
g62
I5
ssg63
g2323
sg56
(lp2330
g49
(g58
g51
NtRp2331
(dp2332
g54
(dp2333
g62
I4
ssg63
Nsg56
(lp2334
g49
(g65
g51
NtRp2335
(dp2336
g54
(dp2337
sg63
g2331
sg56
(lp2338
g49
(g70
g51
NtRp2339
(dp2340
g54
(dp2341
g74
g75
ssg63
g2335
sg56
(lp2342
g1802
asbag49
(g70
g51
NtRp2343
(dp2344
g54
(dp2345
g81
g82
ssg63
g2335
sg56
(lp2346
S':'
asbag49
(g70
g51
NtRp2347
(dp2348
g54
(dp2349
sg63
g2335
sg56
(lp2350
g49
(g50
g51
NtRp2351
(dp2352
g54
(dp2353
g62
I4
ssg63
g2347
sg56
(lp2354
g1815
asbasbasbasbasbasbasbag49
(g65
g51
NtRp2355
(dp2356
g54
(dp2357
sg63
g59
sg56
(lp2358
g49
(g70
g51
NtRp2359
(dp2360
g54
(dp2361
g74
g75
ssg63
g2355
sg56
(lp2362
S'wsgi'
p2363
asbag49
(g70
g51
NtRp2364
(dp2365
g54
(dp2366
g81
g82
ssg63
g2355
sg56
(lp2367
S':'
asbag49
(g70
g51
NtRp2368
(dp2369
g54
(dp2370
sg63
g2355
sg56
(lp2371
g49
(g50
g51
NtRp2372
(dp2373
g54
(dp2374
g62
I5
ssg63
g2368
sg56
(lp2375
g49
(g58
g51
NtRp2376
(dp2377
g54
(dp2378
g62
I4
ssg63
Nsg56
(lp2379
g49
(g65
g51
NtRp2380
(dp2381
g54
(dp2382
sg63
g2376
sg56
(lp2383
g49
(g70
g51
NtRp2384
(dp2385
g54
(dp2386
g74
g75
ssg63
g2380
sg56
(lp2387
S'environ'
p2388
asbag49
(g70
g51
NtRp2389
(dp2390
g54
(dp2391
g81
g82
ssg63
g2380
sg56
(lp2392
S':'
asbag49
(g70
g51
NtRp2393
(dp2394
g54
(dp2395
sg63
g2380
sg56
(lp2396
g49
(g50
g51
NtRp2397
(dp2398
g54
(dp2399
g62
I4
ssg63
g2393
sg56
(lp2400
g49
(g58
g51
NtRp2401
(dp2402
g54
(dp2403
g62
I3
ssg63
Nsg56
(lp2404
g49
(g65
g51
NtRp2405
(dp2406
g54
(dp2407
sg63
g2401
sg56
(lp2408
g49
(g70
g51
NtRp2409
(dp2410
g54
(dp2411
g74
g75
ssg63
g2405
sg56
(lp2412
S'HTTP_ACCEPT'
p2413
asbag49
(g70
g51
NtRp2414
(dp2415
g54
(dp2416
g81
g82
ssg63
g2405
sg56
(lp2417
S':'
asbag49
(g70
g51
NtRp2418
(dp2419
g54
(dp2420
sg63
g2405
sg56
(lp2421
g49
(g50
g51
NtRp2422
(dp2423
g54
(dp2424
g62
I3
ssg63
g2418
sg56
(lp2425
g934
asbasbasbag49
(g65
g51
NtRp2426
(dp2427
g54
(dp2428
sg63
g2401
sg56
(lp2429
g49
(g70
g51
NtRp2430
(dp2431
g54
(dp2432
g74
g75
ssg63
g2426
sg56
(lp2433
S'HTTP_ACCEPT_CHARSET'
p2434
asbag49
(g70
g51
NtRp2435
(dp2436
g54
(dp2437
g81
g82
ssg63
g2426
sg56
(lp2438
S':'
asbag49
(g70
g51
NtRp2439
(dp2440
g54
(dp2441
sg63
g2426
sg56
(lp2442
g49
(g50
g51
NtRp2443
(dp2444
g54
(dp2445
g62
I3
ssg63
g2439
sg56
(lp2446
g956
asbasbasbag49
(g65
g51
NtRp2447
(dp2448
g54
(dp2449
sg63
g2401
sg56
(lp2450
g49
(g70
g51
NtRp2451
(dp2452
g54
(dp2453
g74
g75
ssg63
g2447
sg56
(lp2454
S'HTTP_ACCEPT_ENCODING'
p2455
asbag49
(g70
g51
NtRp2456
(dp2457
g54
(dp2458
g81
g82
ssg63
g2447
sg56
(lp2459
S':'
asbag49
(g70
g51
NtRp2460
(dp2461
g54
(dp2462
sg63
g2447
sg56
(lp2463
g49
(g50
g51
NtRp2464
(dp2465
g54
(dp2466
g62
I3
ssg63
g2460
sg56
(lp2467
g978
asbasbasbag49
(g65
g51
NtRp2468
(dp2469
g54
(dp2470
sg63
g2401
sg56
(lp2471
g49
(g70
g51
NtRp2472
(dp2473
g54
(dp2474
g74
g75
ssg63
g2468
sg56
(lp2475
S'HTTP_ACCEPT_LANGUAGE'
p2476
asbag49
(g70
g51
NtRp2477
(dp2478
g54
(dp2479
g81
g82
ssg63
g2468
sg56
(lp2480
S':'
asbag49
(g70
g51
NtRp2481
(dp2482
g54
(dp2483
sg63
g2468
sg56
(lp2484
g49
(g50
g51
NtRp2485
(dp2486
g54
(dp2487
g62
I3
ssg63
g2481
sg56
(lp2488
g1000
asbasbasbag49
(g65
g51
NtRp2489
(dp2490
g54
(dp2491
sg63
g2401
sg56
(lp2492
g49
(g70
g51
NtRp2493
(dp2494
g54
(dp2495
g74
g75
ssg63
g2489
sg56
(lp2496
S'HTTP_CONNECTION'
p2497
asbag49
(g70
g51
NtRp2498
(dp2499
g54
(dp2500
g81
g82
ssg63
g2489
sg56
(lp2501
S':'
asbag49
(g70
g51
NtRp2502
(dp2503
g54
(dp2504
sg63
g2489
sg56
(lp2505
g49
(g50
g51
NtRp2506
(dp2507
g54
(dp2508
g62
I3
ssg63
g2502
sg56
(lp2509
g1022
asbasbasbag49
(g65
g51
NtRp2510
(dp2511
g54
(dp2512
sg63
g2401
sg56
(lp2513
g49
(g70
g51
NtRp2514
(dp2515
g54
(dp2516
g74
g75
ssg63
g2510
sg56
(lp2517
S'HTTP_COOKIE'
p2518
asbag49
(g70
g51
NtRp2519
(dp2520
g54
(dp2521
g81
g82
ssg63
g2510
sg56
(lp2522
S':'
asbag49
(g70
g51
NtRp2523
(dp2524
g54
(dp2525
sg63
g2510
sg56
(lp2526
g49
(g50
g51
NtRp2527
(dp2528
g54
(dp2529
g62
I3
ssg63
g2523
sg56
(lp2530
g1044
asbasbasbag49
(g65
g51
NtRp2531
(dp2532
g54
(dp2533
sg63
g2401
sg56
(lp2534
g49
(g70
g51
NtRp2535
(dp2536
g54
(dp2537
g74
g75
ssg63
g2531
sg56
(lp2538
S'HTTP_HOST'
p2539
asbag49
(g70
g51
NtRp2540
(dp2541
g54
(dp2542
g81
g82
ssg63
g2531
sg56
(lp2543
S':'
asbag49
(g70
g51
NtRp2544
(dp2545
g54
(dp2546
sg63
g2531
sg56
(lp2547
g49
(g50
g51
NtRp2548
(dp2549
g54
(dp2550
g62
I3
ssg63
g2544
sg56
(lp2551
g1066
asbasbasbag49
(g65
g51
NtRp2552
(dp2553
g54
(dp2554
sg63
g2401
sg56
(lp2555
g49
(g70
g51
NtRp2556
(dp2557
g54
(dp2558
g74
g75
ssg63
g2552
sg56
(lp2559
S'HTTP_KEEP_ALIVE'
p2560
asbag49
(g70
g51
NtRp2561
(dp2562
g54
(dp2563
g81
g82
ssg63
g2552
sg56
(lp2564
S':'
asbag49
(g70
g51
NtRp2565
(dp2566
g54
(dp2567
sg63
g2552
sg56
(lp2568
g49
(g50
g51
NtRp2569
(dp2570
g54
(dp2571
g62
I3
ssg63
g2565
sg56
(lp2572
g1088
asbasbasbag49
(g65
g51
NtRp2573
(dp2574
g54
(dp2575
sg63
g2401
sg56
(lp2576
g49
(g70
g51
NtRp2577
(dp2578
g54
(dp2579
g74
g75
ssg63
g2573
sg56
(lp2580
S'HTTP_USER_AGENT'
p2581
asbag49
(g70
g51
NtRp2582
(dp2583
g54
(dp2584
g81
g82
ssg63
g2573
sg56
(lp2585
S':'
asbag49
(g70
g51
NtRp2586
(dp2587
g54
(dp2588
sg63
g2573
sg56
(lp2589
g49
(g50
g51
NtRp2590
(dp2591
g54
(dp2592
g62
I3
ssg63
g2586
sg56
(lp2593
g1110
asbasbasbag49
(g65
g51
NtRp2594
(dp2595
g54
(dp2596
sg63
g2401
sg56
(lp2597
g49
(g70
g51
NtRp2598
(dp2599
g54
(dp2600
g74
g75
ssg63
g2594
sg56
(lp2601
S'PATH_INFO'
p2602
asbag49
(g70
g51
NtRp2603
(dp2604
g54
(dp2605
g81
g82
ssg63
g2594
sg56
(lp2606
S':'
asbag49
(g70
g51
NtRp2607
(dp2608
g54
(dp2609
sg63
g2594
sg56
(lp2610
g49
(g50
g51
NtRp2611
(dp2612
g54
(dp2613
g62
I3
ssg63
g2607
sg56
(lp2614
g1174
asbasbasbag49
(g65
g51
NtRp2615
(dp2616
g54
(dp2617
sg63
g2401
sg56
(lp2618
g49
(g70
g51
NtRp2619
(dp2620
g54
(dp2621
g74
g75
ssg63
g2615
sg56
(lp2622
S'QUERY_STRING'
p2623
asbag49
(g70
g51
NtRp2624
(dp2625
g54
(dp2626
g81
g82
ssg63
g2615
sg56
(lp2627
S':'
asbag49
(g70
g51
NtRp2628
(dp2629
g54
(dp2630
sg63
g2615
sg56
(lp2631
g49
(g50
g51
NtRp2632
(dp2633
g54
(dp2634
g62
I3
ssg63
g2628
sg56
(lp2635
g1196
asbasbasbag49
(g65
g51
NtRp2636
(dp2637
g54
(dp2638
sg63
g2401
sg56
(lp2639
g49
(g70
g51
NtRp2640
(dp2641
g54
(dp2642
g74
g75
ssg63
g2636
sg56
(lp2643
S'REMOTE_ADDR'
p2644
asbag49
(g70
g51
NtRp2645
(dp2646
g54
(dp2647
g81
g82
ssg63
g2636
sg56
(lp2648
S':'
asbag49
(g70
g51
NtRp2649
(dp2650
g54
(dp2651
sg63
g2636
sg56
(lp2652
g49
(g50
g51
NtRp2653
(dp2654
g54
(dp2655
g62
I3
ssg63
g2649
sg56
(lp2656
g182
asbasbasbag49
(g65
g51
NtRp2657
(dp2658
g54
(dp2659
sg63
g2401
sg56
(lp2660
g49
(g70
g51
NtRp2661
(dp2662
g54
(dp2663
g74
g75
ssg63
g2657
sg56
(lp2664
S'REMOTE_PORT'
p2665
asbag49
(g70
g51
NtRp2666
(dp2667
g54
(dp2668
g81
g82
ssg63
g2657
sg56
(lp2669
S':'
asbag49
(g70
g51
NtRp2670
(dp2671
g54
(dp2672
sg63
g2657
sg56
(lp2673
g49
(g50
g51
NtRp2674
(dp2675
g54
(dp2676
g62
I3
ssg63
g2670
sg56
(lp2677
g1239
asbasbasbag49
(g65
g51
NtRp2678
(dp2679
g54
(dp2680
sg63
g2401
sg56
(lp2681
g49
(g70
g51
NtRp2682
(dp2683
g54
(dp2684
g74
g75
ssg63
g2678
sg56
(lp2685
S'REQUEST_METHOD'
p2686
asbag49
(g70
g51
NtRp2687
(dp2688
g54
(dp2689
g81
g82
ssg63
g2678
sg56
(lp2690
S':'
asbag49
(g70
g51
NtRp2691
(dp2692
g54
(dp2693
sg63
g2678
sg56
(lp2694
g49
(g50
g51
NtRp2695
(dp2696
g54
(dp2697
g62
I3
ssg63
g2691
sg56
(lp2698
g1261
asbasbasbag49
(g65
g51
NtRp2699
(dp2700
g54
(dp2701
sg63
g2401
sg56
(lp2702
g49
(g70
g51
NtRp2703
(dp2704
g54
(dp2705
g74
g75
ssg63
g2699
sg56
(lp2706
S'SCRIPT_NAME'
p2707
asbag49
(g70
g51
NtRp2708
(dp2709
g54
(dp2710
g81
g82
ssg63
g2699
sg56
(lp2711
S':'
asbag49
(g70
g51
NtRp2712
(dp2713
g54
(dp2714
sg63
g2699
sg56
(lp2715
g49
(g50
g51
NtRp2716
(dp2717
g54
(dp2718
g62
I3
ssg63
g2712
sg56
(lp2719
S''
asbasbasbag49
(g65
g51
NtRp2720
(dp2721
g54
(dp2722
sg63
g2401
sg56
(lp2723
g49
(g70
g51
NtRp2724
(dp2725
g54
(dp2726
g74
g75
ssg63
g2720
sg56
(lp2727
S'SERVER_NAME'
p2728
asbag49
(g70
g51
NtRp2729
(dp2730
g54
(dp2731
g81
g82
ssg63
g2720
sg56
(lp2732
S':'
asbag49
(g70
g51
NtRp2733
(dp2734
g54
(dp2735
sg63
g2720
sg56
(lp2736
g49
(g50
g51
NtRp2737
(dp2738
g54
(dp2739
g62
I3
ssg63
g2733
sg56
(lp2740
g1304
asbasbasbag49
(g65
g51
NtRp2741
(dp2742
g54
(dp2743
sg63
g2401
sg56
(lp2744
g49
(g70
g51
NtRp2745
(dp2746
g54
(dp2747
g74
g75
ssg63
g2741
sg56
(lp2748
S'SERVER_PORT'
p2749
asbag49
(g70
g51
NtRp2750
(dp2751
g54
(dp2752
g81
g82
ssg63
g2741
sg56
(lp2753
S':'
asbag49
(g70
g51
NtRp2754
(dp2755
g54
(dp2756
sg63
g2741
sg56
(lp2757
g49
(g50
g51
NtRp2758
(dp2759
g54
(dp2760
g62
I3
ssg63
g2754
sg56
(lp2761
g1326
asbasbasbag49
(g65
g51
NtRp2762
(dp2763
g54
(dp2764
sg63
g2401
sg56
(lp2765
g49
(g70
g51
NtRp2766
(dp2767
g54
(dp2768
g74
g75
ssg63
g2762
sg56
(lp2769
S'SERVER_PROTOCOL'
p2770
asbag49
(g70
g51
NtRp2771
(dp2772
g54
(dp2773
g81
g82
ssg63
g2762
sg56
(lp2774
S':'
asbag49
(g70
g51
NtRp2775
(dp2776
g54
(dp2777
sg63
g2762
sg56
(lp2778
g49
(g50
g51
NtRp2779
(dp2780
g54
(dp2781
g62
I3
ssg63
g2775
sg56
(lp2782
g1348
asbasbasbag49
(g65
g51
NtRp2783
(dp2784
g54
(dp2785
sg63
g2401
sg56
(lp2786
g49
(g70
g51
NtRp2787
(dp2788
g54
(dp2789
g74
g75
ssg63
g2783
sg56
(lp2790
S'SERVER_SOFTWARE'
p2791
asbag49
(g70
g51
NtRp2792
(dp2793
g54
(dp2794
g81
g82
ssg63
g2783
sg56
(lp2795
S':'
asbag49
(g70
g51
NtRp2796
(dp2797
g54
(dp2798
sg63
g2783
sg56
(lp2799
g49
(g50
g51
NtRp2800
(dp2801
g54
(dp2802
g62
I3
ssg63
g2796
sg56
(lp2803
g1370
asbasbasbag49
(g65
g51
NtRp2804
(dp2805
g54
(dp2806
sg63
g2401
sg56
(lp2807
g49
(g70
g51
NtRp2808
(dp2809
g54
(dp2810
g74
g75
ssg63
g2804
sg56
(lp2811
S'wsgi.errors'
p2812
asbag49
(g70
g51
NtRp2813
(dp2814
g54
(dp2815
g81
g82
ssg63
g2804
sg56
(lp2816
S':'
asbag49
(g70
g51
NtRp2817
(dp2818
g54
(dp2819
sg63
g2804
sg56
(lp2820
g49
(g50
g51
NtRp2821
(dp2822
g54
(dp2823
g62
I3
ssg63
g2817
sg56
(lp2824
S"<open file '<stderr>', mode 'w' at 0x002C00B0>"
p2825
asbasbasbag49
(g65
g51
NtRp2826
(dp2827
g54
(dp2828
sg63
g2401
sg56
(lp2829
g49
(g70
g51
NtRp2830
(dp2831
g54
(dp2832
g74
g75
ssg63
g2826
sg56
(lp2833
S'wsgi.file_wrapper'
p2834
asbag49
(g70
g51
NtRp2835
(dp2836
g54
(dp2837
g81
g82
ssg63
g2826
sg56
(lp2838
S':'
asbag49
(g70
g51
NtRp2839
(dp2840
g54
(dp2841
sg63
g2826
sg56
(lp2842
g49
(g50
g51
NtRp2843
(dp2844
g54
(dp2845
g62
I3
ssg63
g2839
sg56
(lp2846
S'<class wsgiref.util.FileWrapper at 0x0210FCF0>'
p2847
asbasbasbag49
(g65
g51
NtRp2848
(dp2849
g54
(dp2850
sg63
g2401
sg56
(lp2851
g49
(g70
g51
NtRp2852
(dp2853
g54
(dp2854
g74
g75
ssg63
g2848
sg56
(lp2855
S'wsgi.input'
p2856
asbag49
(g70
g51
NtRp2857
(dp2858
g54
(dp2859
g81
g82
ssg63
g2848
sg56
(lp2860
S':'
asbag49
(g70
g51
NtRp2861
(dp2862
g54
(dp2863
sg63
g2848
sg56
(lp2864
g49
(g50
g51
NtRp2865
(dp2866
g54
(dp2867
g62
I3
ssg63
g2861
sg56
(lp2868
S'<cStringIO.StringO object at 0x05E0F9C0>'
p2869
asbasbasbag49
(g65
g51
NtRp2870
(dp2871
g54
(dp2872
sg63
g2401
sg56
(lp2873
g49
(g70
g51
NtRp2874
(dp2875
g54
(dp2876
g74
g75
ssg63
g2870
sg56
(lp2877
S'wsgi.multiprocess'
p2878
asbag49
(g70
g51
NtRp2879
(dp2880
g54
(dp2881
g81
g82
ssg63
g2870
sg56
(lp2882
S':'
asbag49
(g70
g51
NtRp2883
(dp2884
g54
(dp2885
sg63
g2870
sg56
(lp2886
g49
(g50
g51
NtRp2887
(dp2888
g54
(dp2889
g62
I3
ssg63
g2883
sg56
(lp2890
g92
asbasbasbag49
(g65
g51
NtRp2891
(dp2892
g54
(dp2893
sg63
g2401
sg56
(lp2894
g49
(g70
g51
NtRp2895
(dp2896
g54
(dp2897
g74
g75
ssg63
g2891
sg56
(lp2898
S'wsgi.multithread'
p2899
asbag49
(g70
g51
NtRp2900
(dp2901
g54
(dp2902
g81
g82
ssg63
g2891
sg56
(lp2903
S':'
asbag49
(g70
g51
NtRp2904
(dp2905
g54
(dp2906
sg63
g2891
sg56
(lp2907
g49
(g50
g51
NtRp2908
(dp2909
g54
(dp2910
g62
I3
ssg63
g2904
sg56
(lp2911
g1610
asbasbasbag49
(g65
g51
NtRp2912
(dp2913
g54
(dp2914
sg63
g2401
sg56
(lp2915
g49
(g70
g51
NtRp2916
(dp2917
g54
(dp2918
g74
g75
ssg63
g2912
sg56
(lp2919
S'wsgi.run_once'
p2920
asbag49
(g70
g51
NtRp2921
(dp2922
g54
(dp2923
g81
g82
ssg63
g2912
sg56
(lp2924
S':'
asbag49
(g70
g51
NtRp2925
(dp2926
g54
(dp2927
sg63
g2912
sg56
(lp2928
g49
(g50
g51
NtRp2929
(dp2930
g54
(dp2931
g62
I3
ssg63
g2925
sg56
(lp2932
g92
asbasbasbag49
(g65
g51
NtRp2933
(dp2934
g54
(dp2935
sg63
g2401
sg56
(lp2936
g49
(g70
g51
NtRp2937
(dp2938
g54
(dp2939
g74
g75
ssg63
g2933
sg56
(lp2940
S'wsgi.url_scheme'
p2941
asbag49
(g70
g51
NtRp2942
(dp2943
g54
(dp2944
g81
g82
ssg63
g2933
sg56
(lp2945
S':'
asbag49
(g70
g51
NtRp2946
(dp2947
g54
(dp2948
sg63
g2933
sg56
(lp2949
g49
(g50
g51
NtRp2950
(dp2951
g54
(dp2952
g62
I3
ssg63
g2946
sg56
(lp2953
g1653
asbasbasbag49
(g65
g51
NtRp2954
(dp2955
g54
(dp2956
sg63
g2401
sg56
(lp2957
g49
(g70
g51
NtRp2958
(dp2959
g54
(dp2960
g74
g75
ssg63
g2954
sg56
(lp2961
S'wsgi.version'
p2962
asbag49
(g70
g51
NtRp2963
(dp2964
g54
(dp2965
g81
g82
ssg63
g2954
sg56
(lp2966
S':'
asbag49
(g70
g51
NtRp2967
(dp2968
g54
(dp2969
sg63
g2954
sg56
(lp2970
g49
(g50
g51
NtRp2971
(dp2972
g54
(dp2973
g62
I3
ssg63
g2967
sg56
(lp2974
S'1'
asbasbasbasbasbasbasbasbasbasbasbasbasbsS'frames'
p2975
(lp2976
(dp2977
S'file'
p2978
S'D:\\UCZELNIA\\ELKA\\tin\\web2py\\web2py_win\\web2py\\gluon\\restricted.py'
p2979
sS'dump'
p2980
(dp2981
sS'lnum'
p2982
I204
sS'lines'
p2983
(dp2984
sS'call'
p2985
S'(code="# -*- coding: utf-8 -*- \\n\\n######################...no\'\\n\\nresponse._vars=response._caller(add_points)\\n", environment={\'A\': <class \'gluon.html.A\'>, \'Auth\': <class \'gluon.tools.Auth\'>, \'B\': <class \'gluon.html.B\'>, \'BEAUTIFY\': <class \'gluon.html.BEAUTIFY\'>, \'BODY\': <class \'gluon.html.BODY\'>, \'BR\': <class \'gluon.html.BR\'>, \'BUTTON\': <class \'gluon.html.BUTTON\'>, \'CAT\': <class \'gluon.html.CAT\'>, \'CENTER\': <class \'gluon.html.CENTER\'>, \'CLEANUP\': <class \'gluon.validators.CLEANUP\'>, ...}, layer=r\'D:\\UCZELNIA\\ELKA\\tin\\web2py\\web2py_win\\web2py\\applications\\ASA\\controllers/default.py\')'
p2986
sS'func'
p2987
S'restricted'
p2988
sa(dp2989
g2978
S'D:\\UCZELNIA\\ELKA\\tin\\web2py\\web2py_win\\web2py\\applications\\ASA\\controllers\\default.py'
p2990
sg2980
(dp2991
sg2982
I229
sg2983
(dp2992
I224
S'        akt_set.update(dokladnosc= 3.0)'
p2993
sI225
S'        akt_set.update(w_obszarze= czy_wewnatrz)'
p2994
sI226
S"        return 'dodano'"
p2995
sI227
S"    return 'nie dodano'"
p2996
sI218
S'        teraz=teraz-delta'
p2997
sI219
S''
sI220
S'        akt_set = db(db.pracownik.id==txt_l[0])'
p2998
sI221
S'        akt_set.update(latitude = txt_l[i-2])'
p2999
sI222
S'        akt_set.update(longitude= txt_l[i-1])'
p3000
sI223
S'        akt_set.update(czas= teraz)'
p3001
ssg2985
S'()'
p3002
sg2987
S'<module>'
p3003
sa(dp3004
g2978
S'D:\\UCZELNIA\\ELKA\\tin\\web2py\\web2py_win\\web2py\\gluon\\globals.py'
p3005
sg2980
(dp3006
sg2982
I172
sg2983
(dp3007
sg2985
S'(f=<function add_points at 0x02F0C9F0>)'
p3008
sg2987
S'<lambda>'
p3009
sa(dp3010
g2978
S'D:\\UCZELNIA\\ELKA\\tin\\web2py\\web2py_win\\web2py\\applications\\ASA\\controllers\\default.py'
p3011
sg2980
(dp3012
sg2982
I213
sg2983
(dp3013
I208
S"            print 'aa'"
p3014
sI209
S'            obszar_lat.append(row.latitude)'
p3015
sI210
S'            obszar_lng.append(row.longitude)'
p3016
sI211
S''
sI212
S'        while i+2<=k :'
p3017
sI213
S'            czy_wewnatrz = point_inside_polygon(txt_l[i],txt_l[i+1],obszar_lat,obszar_lng)  #txt_l[i],txt_l[i+1]'
p3018
sI214
S'            db.log.insert(id_pracownik = id_prac, czas = teraz, latitude=txt_l[i], longitude=txt_l[i+1], dokladnosc = 3.0, w_obszarze = czy_wewnatrz)   #todo'
p3019
sI215
S'            i=i+2'
p3020
sI216
S'            teraz=teraz+delta'
p3021
sI217
S'        #ustawienie tabeli pracownik'
p3022
ssg2985
S'()'
p3023
sg2987
S'add_points'
p3024
sa(dp3025
g2978
S'D:\\UCZELNIA\\ELKA\\tin\\web2py\\web2py_win\\web2py\\applications\\ASA\\controllers\\default.py'
p3026
sg2980
(dp3027
sg2982
I165
sg2983
(dp3028
I160
S'def point_inside_polygon(x,y,p_lat, p_lng):'
p3029
sI161
S''
sI162
S'    n = len(p_lat)'
p3030
sI163
S'    inside =False'
p3031
sI164
S''
sI165
S'    p1x = p_lat[0]'
p3032
sI166
S'    p1y = p_lng[0]'
p3033
sI167
S''
sI168
S'    for i in range(n+1):'
p3034
sI169
S'        p2x = p_lat[i%n]'
p3035
ssg2985
S"(x='52.21867175163748', y='21.01392316792044', p_lat=[], p_lng=[])"
p3036
sg2987
S'point_inside_polygon'
p3037
sasS'pyver'
p3038
S'Python 2.5.4: D:\\UCZELNIA\\ELKA\\tin\\web2py\\web2py_win\\web2py\\web2py.exe'
p3039
sS'session'
p3040
g49
(g50
g51
NtRp3041
(dp3042
g54
(dp3043
sg56
(lp3044
g49
(g58
g51
NtRp3045
(dp3046
g54
(dp3047
g62
I5
ssg63
Nsg56
(lp3048
g49
(g65
g51
NtRp3049
(dp3050
g54
(dp3051
sg63
g3045
sg56
(lp3052
g49
(g70
g51
NtRp3053
(dp3054
g54
(dp3055
g74
g75
ssg63
g3049
sg56
(lp3056
S'last_query'
p3057
asbag49
(g70
g51
NtRp3058
(dp3059
g54
(dp3060
g81
g82
ssg63
g3049
sg56
(lp3061
S':'
asbag49
(g70
g51
NtRp3062
(dp3063
g54
(dp3064
sg63
g3049
sg56
(lp3065
g49
(g50
g51
NtRp3066
(dp3067
g54
(dp3068
g62
I5
ssg63
g3062
sg56
(lp3069
S'db.punkt_obszaru'
p3070
asbasbasbasbasbsS'etype'
p3071
S"<type 'exceptions.IndexError'>"
p3072
sS'date'
p3073
S'Mon Jan 09 17:53:09 2012'
p3074
sS'response'
p3075
g49
(g50
g51
NtRp3076
(dp3077
g54
(dp3078
sg56
(lp3079
g49
(g58
g51
NtRp3080
(dp3081
g54
(dp3082
g62
I5
ssg63
Nsg56
(lp3083
g49
(g65
g51
NtRp3084
(dp3085
g54
(dp3086
sg63
g3080
sg56
(lp3087
g49
(g70
g51
NtRp3088
(dp3089
g54
(dp3090
g74
g75
ssg63
g3084
sg56
(lp3091
g147
asbag49
(g70
g51
NtRp3092
(dp3093
g54
(dp3094
g81
g82
ssg63
g3084
sg56
(lp3095
S':'
asbag49
(g70
g51
NtRp3096
(dp3097
g54
(dp3098
sg63
g3084
sg56
(lp3099
g49
(g50
g51
NtRp3100
(dp3101
g54
(dp3102
g62
I5
ssg63
g3096
sg56
(lp3103
S'<cStringIO.StringO object at 0x05E0FAC0>'
p3104
asbasbasbag49
(g65
g51
NtRp3105
(dp3106
g54
(dp3107
sg63
g3080
sg56
(lp3108
g49
(g70
g51
NtRp3109
(dp3110
g54
(dp3111
g74
g75
ssg63
g3105
sg56
(lp3112
g213
asbag49
(g70
g51
NtRp3113
(dp3114
g54
(dp3115
g81
g82
ssg63
g3105
sg56
(lp3116
S':'
asbag49
(g70
g51
NtRp3117
(dp3118
g54
(dp3119
sg63
g3105
sg56
(lp3120
g49
(g50
g51
NtRp3121
(dp3122
g54
(dp3123
g62
I5
ssg63
g3117
sg56
(lp3124
g49
(g58
g51
NtRp3125
(dp3126
g54
(dp3127
g62
I4
ssg63
Nsg56
(lp3128
g49
(g65
g51
NtRp3129
(dp3130
g54
(dp3131
sg63
g3125
sg56
(lp3132
g49
(g70
g51
NtRp3133
(dp3134
g54
(dp3135
g74
g75
ssg63
g3129
sg56
(lp3136
S'session_id_asa'
p3137
asbag49
(g70
g51
NtRp3138
(dp3139
g54
(dp3140
g81
g82
ssg63
g3129
sg56
(lp3141
S':'
asbag49
(g70
g51
NtRp3142
(dp3143
g54
(dp3144
sg63
g3129
sg56
(lp3145
g49
(g50
g51
NtRp3146
(dp3147
g54
(dp3148
g62
I4
ssg63
g3142
sg56
(lp3149
g49
(g58
g51
NtRp3150
(dp3151
g54
(dp3152
g62
I3
ssg63
Nsg56
(lp3153
g49
(g65
g51
NtRp3154
(dp3155
g54
(dp3156
sg63
g3150
sg56
(lp3157
g49
(g70
g51
NtRp3158
(dp3159
g54
(dp3160
g74
g75
ssg63
g3154
sg56
(lp3161
g263
asbag49
(g70
g51
NtRp3162
(dp3163
g54
(dp3164
g81
g82
ssg63
g3154
sg56
(lp3165
S':'
asbag49
(g70
g51
NtRp3166
(dp3167
g54
(dp3168
sg63
g3154
sg56
(lp3169
g49
(g50
g51
NtRp3170
(dp3171
g54
(dp3172
g62
I3
ssg63
g3166
sg56
(lp3173
S''
asbasbasbag49
(g65
g51
NtRp3174
(dp3175
g54
(dp3176
sg63
g3150
sg56
(lp3177
g49
(g70
g51
NtRp3178
(dp3179
g54
(dp3180
g74
g75
ssg63
g3174
sg56
(lp3181
g284
asbag49
(g70
g51
NtRp3182
(dp3183
g54
(dp3184
g81
g82
ssg63
g3174
sg56
(lp3185
S':'
asbag49
(g70
g51
NtRp3186
(dp3187
g54
(dp3188
sg63
g3174
sg56
(lp3189
g49
(g50
g51
NtRp3190
(dp3191
g54
(dp3192
g62
I3
ssg63
g3186
sg56
(lp3193
S''
asbasbasbag49
(g65
g51
NtRp3194
(dp3195
g54
(dp3196
sg63
g3150
sg56
(lp3197
g49
(g70
g51
NtRp3198
(dp3199
g54
(dp3200
g74
g75
ssg63
g3194
sg56
(lp3201
g305
asbag49
(g70
g51
NtRp3202
(dp3203
g54
(dp3204
g81
g82
ssg63
g3194
sg56
(lp3205
S':'
asbag49
(g70
g51
NtRp3206
(dp3207
g54
(dp3208
sg63
g3194
sg56
(lp3209
g49
(g50
g51
NtRp3210
(dp3211
g54
(dp3212
g62
I3
ssg63
g3206
sg56
(lp3213
S''
asbasbasbag49
(g65
g51
NtRp3214
(dp3215
g54
(dp3216
sg63
g3150
sg56
(lp3217
g49
(g70
g51
NtRp3218
(dp3219
g54
(dp3220
g74
g75
ssg63
g3214
sg56
(lp3221
g326
asbag49
(g70
g51
NtRp3222
(dp3223
g54
(dp3224
g81
g82
ssg63
g3214
sg56
(lp3225
S':'
asbag49
(g70
g51
NtRp3226
(dp3227
g54
(dp3228
sg63
g3214
sg56
(lp3229
g49
(g50
g51
NtRp3230
(dp3231
g54
(dp3232
g62
I3
ssg63
g3226
sg56
(lp3233
S''
asbasbasbag49
(g65
g51
NtRp3234
(dp3235
g54
(dp3236
sg63
g3150
sg56
(lp3237
g49
(g70
g51
NtRp3238
(dp3239
g54
(dp3240
g74
g75
ssg63
g3234
sg56
(lp3241
g347
asbag49
(g70
g51
NtRp3242
(dp3243
g54
(dp3244
g81
g82
ssg63
g3234
sg56
(lp3245
S':'
asbag49
(g70
g51
NtRp3246
(dp3247
g54
(dp3248
sg63
g3234
sg56
(lp3249
g49
(g50
g51
NtRp3250
(dp3251
g54
(dp3252
g62
I3
ssg63
g3246
sg56
(lp3253
S'/'
asbasbasbag49
(g65
g51
NtRp3254
(dp3255
g54
(dp3256
sg63
g3150
sg56
(lp3257
g49
(g70
g51
NtRp3258
(dp3259
g54
(dp3260
g74
g75
ssg63
g3254
sg56
(lp3261
g368
asbag49
(g70
g51
NtRp3262
(dp3263
g54
(dp3264
g81
g82
ssg63
g3254
sg56
(lp3265
S':'
asbag49
(g70
g51
NtRp3266
(dp3267
g54
(dp3268
sg63
g3254
sg56
(lp3269
g49
(g50
g51
NtRp3270
(dp3271
g54
(dp3272
g62
I3
ssg63
g3266
sg56
(lp3273
S''
asbasbasbag49
(g65
g51
NtRp3274
(dp3275
g54
(dp3276
sg63
g3150
sg56
(lp3277
g49
(g70
g51
NtRp3278
(dp3279
g54
(dp3280
g74
g75
ssg63
g3274
sg56
(lp3281
g389
asbag49
(g70
g51
NtRp3282
(dp3283
g54
(dp3284
g81
g82
ssg63
g3274
sg56
(lp3285
S':'
asbag49
(g70
g51
NtRp3286
(dp3287
g54
(dp3288
sg63
g3274
sg56
(lp3289
g49
(g50
g51
NtRp3290
(dp3291
g54
(dp3292
g62
I3
ssg63
g3286
sg56
(lp3293
S''
asbasbasbasbasbasbasbasbasbasbasbag49
(g65
g51
NtRp3294
(dp3295
g54
(dp3296
sg63
g3080
sg56
(lp3297
g49
(g70
g51
NtRp3298
(dp3299
g54
(dp3300
g74
g75
ssg63
g3294
sg56
(lp3301
S'files'
p3302
asbag49
(g70
g51
NtRp3303
(dp3304
g54
(dp3305
g81
g82
ssg63
g3294
sg56
(lp3306
S':'
asbag49
(g70
g51
NtRp3307
(dp3308
g54
(dp3309
sg63
g3294
sg56
(lp3310
g49
(g50
g51
NtRp3311
(dp3312
g54
(dp3313
g62
I5
ssg63
g3307
sg56
(lp3314
g49
(g58
g51
NtRp3315
(dp3316
g54
(dp3317
g62
I4
ssg63
Nsg56
(lp3318
sbasbasbasbag49
(g65
g51
NtRp3319
(dp3320
g54
(dp3321
sg63
g3080
sg56
(lp3322
g49
(g70
g51
NtRp3323
(dp3324
g54
(dp3325
g74
g75
ssg63
g3319
sg56
(lp3326
S'flash'
p3327
asbag49
(g70
g51
NtRp3328
(dp3329
g54
(dp3330
g81
g82
ssg63
g3319
sg56
(lp3331
S':'
asbag49
(g70
g51
NtRp3332
(dp3333
g54
(dp3334
sg63
g3319
sg56
(lp3335
g49
(g50
g51
NtRp3336
(dp3337
g54
(dp3338
g62
I5
ssg63
g3332
sg56
(lp3339
S''
asbasbasbag49
(g65
g51
NtRp3340
(dp3341
g54
(dp3342
sg63
g3080
sg56
(lp3343
g49
(g70
g51
NtRp3344
(dp3345
g54
(dp3346
g74
g75
ssg63
g3340
sg56
(lp3347
S'generic_patterns'
p3348
asbag49
(g70
g51
NtRp3349
(dp3350
g54
(dp3351
g81
g82
ssg63
g3340
sg56
(lp3352
S':'
asbag49
(g70
g51
NtRp3353
(dp3354
g54
(dp3355
sg63
g3340
sg56
(lp3356
g49
(g50
g51
NtRp3357
(dp3358
g54
(dp3359
g62
I5
ssg63
g3353
sg56
(lp3360
g49
(g58
g51
NtRp3361
(dp3362
g54
(dp3363
g62
I4
ssg63
Nsg56
(lp3364
sbasbasbasbag49
(g65
g51
NtRp3365
(dp3366
g54
(dp3367
sg63
g3080
sg56
(lp3368
g49
(g70
g51
NtRp3369
(dp3370
g54
(dp3371
g74
g75
ssg63
g3365
sg56
(lp3372
S'headers'
p3373
asbag49
(g70
g51
NtRp3374
(dp3375
g54
(dp3376
g81
g82
ssg63
g3365
sg56
(lp3377
S':'
asbag49
(g70
g51
NtRp3378
(dp3379
g54
(dp3380
sg63
g3365
sg56
(lp3381
g49
(g50
g51
NtRp3382
(dp3383
g54
(dp3384
g62
I5
ssg63
g3378
sg56
(lp3385
g49
(g58
g51
NtRp3386
(dp3387
g54
(dp3388
g62
I4
ssg63
Nsg56
(lp3389
g49
(g65
g51
NtRp3390
(dp3391
g54
(dp3392
sg63
g3386
sg56
(lp3393
g49
(g70
g51
NtRp3394
(dp3395
g54
(dp3396
g74
g75
ssg63
g3390
sg56
(lp3397
S'Cache-Control'
p3398
asbag49
(g70
g51
NtRp3399
(dp3400
g54
(dp3401
g81
g82
ssg63
g3390
sg56
(lp3402
S':'
asbag49
(g70
g51
NtRp3403
(dp3404
g54
(dp3405
sg63
g3390
sg56
(lp3406
g49
(g50
g51
NtRp3407
(dp3408
g54
(dp3409
g62
I4
ssg63
g3403
sg56
(lp3410
S'no-store, no-cache, must-revalidate, post-check=0, pre-check=0'
p3411
asbasbasbag49
(g65
g51
NtRp3412
(dp3413
g54
(dp3414
sg63
g3386
sg56
(lp3415
g49
(g70
g51
NtRp3416
(dp3417
g54
(dp3418
g74
g75
ssg63
g3412
sg56
(lp3419
S'Content-Type'
p3420
asbag49
(g70
g51
NtRp3421
(dp3422
g54
(dp3423
g81
g82
ssg63
g3412
sg56
(lp3424
S':'
asbag49
(g70
g51
NtRp3425
(dp3426
g54
(dp3427
sg63
g3412
sg56
(lp3428
g49
(g50
g51
NtRp3429
(dp3430
g54
(dp3431
g62
I4
ssg63
g3425
sg56
(lp3432
S'text/html; charset=utf-8'
p3433
asbasbasbag49
(g65
g51
NtRp3434
(dp3435
g54
(dp3436
sg63
g3386
sg56
(lp3437
g49
(g70
g51
NtRp3438
(dp3439
g54
(dp3440
g74
g75
ssg63
g3434
sg56
(lp3441
S'Expires'
p3442
asbag49
(g70
g51
NtRp3443
(dp3444
g54
(dp3445
g81
g82
ssg63
g3434
sg56
(lp3446
S':'
asbag49
(g70
g51
NtRp3447
(dp3448
g54
(dp3449
sg63
g3434
sg56
(lp3450
g49
(g50
g51
NtRp3451
(dp3452
g54
(dp3453
g62
I4
ssg63
g3447
sg56
(lp3454
S'Mon, 09 Jan 2012 16:53:09 GMT'
p3455
asbasbasbag49
(g65
g51
NtRp3456
(dp3457
g54
(dp3458
sg63
g3386
sg56
(lp3459
g49
(g70
g51
NtRp3460
(dp3461
g54
(dp3462
g74
g75
ssg63
g3456
sg56
(lp3463
S'Pragma'
p3464
asbag49
(g70
g51
NtRp3465
(dp3466
g54
(dp3467
g81
g82
ssg63
g3456
sg56
(lp3468
S':'
asbag49
(g70
g51
NtRp3469
(dp3470
g54
(dp3471
sg63
g3456
sg56
(lp3472
g49
(g50
g51
NtRp3473
(dp3474
g54
(dp3475
g62
I4
ssg63
g3469
sg56
(lp3476
S'no-cache'
p3477
asbasbasbag49
(g65
g51
NtRp3478
(dp3479
g54
(dp3480
sg63
g3386
sg56
(lp3481
g49
(g70
g51
NtRp3482
(dp3483
g54
(dp3484
g74
g75
ssg63
g3478
sg56
(lp3485
S'X-Powered-By'
p3486
asbag49
(g70
g51
NtRp3487
(dp3488
g54
(dp3489
g81
g82
ssg63
g3478
sg56
(lp3490
S':'
asbag49
(g70
g51
NtRp3491
(dp3492
g54
(dp3493
sg63
g3478
sg56
(lp3494
g49
(g50
g51
NtRp3495
(dp3496
g54
(dp3497
g62
I4
ssg63
g3491
sg56
(lp3498
S'web2py'
p3499
asbasbasbasbasbasbasbag49
(g65
g51
NtRp3500
(dp3501
g54
(dp3502
sg63
g3080
sg56
(lp3503
g49
(g70
g51
NtRp3504
(dp3505
g54
(dp3506
g74
g75
ssg63
g3500
sg56
(lp3507
S'menu'
p3508
asbag49
(g70
g51
NtRp3509
(dp3510
g54
(dp3511
g81
g82
ssg63
g3500
sg56
(lp3512
S':'
asbag49
(g70
g51
NtRp3513
(dp3514
g54
(dp3515
sg63
g3500
sg56
(lp3516
g49
(g50
g51
NtRp3517
(dp3518
g54
(dp3519
g62
I5
ssg63
g3513
sg56
(lp3520
g49
(g58
g51
NtRp3521
(dp3522
g54
(dp3523
g62
I4
ssg63
Nsg56
(lp3524
g49
(g65
g51
NtRp3525
(dp3526
g54
(dp3527
sg63
g3521
sg56
(lp3528
g49
(g70
g51
NtRp3529
(dp3530
g54
(dp3531
sg63
g3525
sg56
(lp3532
g49
(g50
g51
NtRp3533
(dp3534
g54
(dp3535
g62
I4
ssg63
g3529
sg56
(lp3536
g49
(g58
g51
NtRp3537
(dp3538
g54
(dp3539
g62
I3
ssg63
Nsg56
(lp3540
g49
(g65
g51
NtRp3541
(dp3542
g54
(dp3543
sg63
g3537
sg56
(lp3544
g49
(g70
g51
NtRp3545
(dp3546
g54
(dp3547
sg63
g3541
sg56
(lp3548
g49
(g50
g51
NtRp3549
(dp3550
g54
(dp3551
g62
I3
ssg63
g3545
sg56
(lp3552
cgluon.languages
lazyT_unpickle
p3553
(S't\x06\x00\x00\x00Indeks'
tRp3554
asbasbasbag49
(g65
g51
NtRp3555
(dp3556
g54
(dp3557
sg63
g3537
sg56
(lp3558
g49
(g70
g51
NtRp3559
(dp3560
g54
(dp3561
sg63
g3555
sg56
(lp3562
g49
(g50
g51
NtRp3563
(dp3564
g54
(dp3565
g62
I3
ssg63
g3559
sg56
(lp3566
g92
asbasbasbag49
(g65
g51
NtRp3567
(dp3568
g54
(dp3569
sg63
g3537
sg56
(lp3570
g49
(g70
g51
NtRp3571
(dp3572
g54
(dp3573
sg63
g3567
sg56
(lp3574
g49
(g50
g51
NtRp3575
(dp3576
g54
(dp3577
g62
I3
ssg63
g3571
sg56
(lp3578
S'/ASA/default/index'
p3579
asbasbasbag49
(g65
g51
NtRp3580
(dp3581
g54
(dp3582
sg63
g3537
sg56
(lp3583
g49
(g70
g51
NtRp3584
(dp3585
g54
(dp3586
sg63
g3580
sg56
(lp3587
g49
(g50
g51
NtRp3588
(dp3589
g54
(dp3590
g62
I3
ssg63
g3584
sg56
(lp3591
g49
(g58
g51
NtRp3592
(dp3593
g54
(dp3594
g62
I2
ssg63
Nsg56
(lp3595
sbasbasbasbasbasbasbasbasbasbasbasbag49
(g65
g51
NtRp3596
(dp3597
g54
(dp3598
sg63
g3080
sg56
(lp3599
g49
(g70
g51
NtRp3600
(dp3601
g54
(dp3602
g74
g75
ssg63
g3596
sg56
(lp3603
S'menu_edit'
p3604
asbag49
(g70
g51
NtRp3605
(dp3606
g54
(dp3607
g81
g82
ssg63
g3596
sg56
(lp3608
S':'
asbag49
(g70
g51
NtRp3609
(dp3610
g54
(dp3611
sg63
g3596
sg56
(lp3612
g49
(g50
g51
NtRp3613
(dp3614
g54
(dp3615
g62
I5
ssg63
g3609
sg56
(lp3616
g49
(g58
g51
NtRp3617
(dp3618
g54
(dp3619
g62
I4
ssg63
Nsg56
(lp3620
g49
(g65
g51
NtRp3621
(dp3622
g54
(dp3623
sg63
g3617
sg56
(lp3624
g49
(g70
g51
NtRp3625
(dp3626
g54
(dp3627
sg63
g3621
sg56
(lp3628
g49
(g50
g51
NtRp3629
(dp3630
g54
(dp3631
g62
I4
ssg63
g3625
sg56
(lp3632
g49
(g58
g51
NtRp3633
(dp3634
g54
(dp3635
g62
I3
ssg63
Nsg56
(lp3636
g49
(g65
g51
NtRp3637
(dp3638
g54
(dp3639
sg63
g3633
sg56
(lp3640
g49
(g70
g51
NtRp3641
(dp3642
g54
(dp3643
sg63
g3637
sg56
(lp3644
g49
(g50
g51
NtRp3645
(dp3646
g54
(dp3647
g62
I3
ssg63
g3641
sg56
(lp3648
g3553
(S't\x06\x00\x00\x00Edycja'
tRp3649
asbasbasbag49
(g65
g51
NtRp3650
(dp3651
g54
(dp3652
sg63
g3633
sg56
(lp3653
g49
(g70
g51
NtRp3654
(dp3655
g54
(dp3656
sg63
g3650
sg56
(lp3657
g49
(g50
g51
NtRp3658
(dp3659
g54
(dp3660
g62
I3
ssg63
g3654
sg56
(lp3661
g92
asbasbasbag49
(g65
g51
NtRp3662
(dp3663
g54
(dp3664
sg63
g3633
sg56
(lp3665
g49
(g70
g51
NtRp3666
(dp3667
g54
(dp3668
sg63
g3662
sg56
(lp3669
g49
(g50
g51
NtRp3670
(dp3671
g54
(dp3672
g62
I3
ssg63
g3666
sg56
(lp3673
S'/admin/default/design/ASA'
p3674
asbasbasbag49
(g65
g51
NtRp3675
(dp3676
g54
(dp3677
sg63
g3633
sg56
(lp3678
g49
(g70
g51
NtRp3679
(dp3680
g54
(dp3681
sg63
g3675
sg56
(lp3682
g49
(g50
g51
NtRp3683
(dp3684
g54
(dp3685
g62
I3
ssg63
g3679
sg56
(lp3686
g49
(g58
g51
NtRp3687
(dp3688
g54
(dp3689
g62
I2
ssg63
Nsg56
(lp3690
g49
(g65
g51
NtRp3691
(dp3692
g54
(dp3693
sg63
g3687
sg56
(lp3694
g49
(g70
g51
NtRp3695
(dp3696
g54
(dp3697
sg63
g3691
sg56
(lp3698
g49
(g50
g51
NtRp3699
(dp3700
g54
(dp3701
g62
I2
ssg63
g3695
sg56
(lp3702
g49
(g58
g51
NtRp3703
(dp3704
g54
(dp3705
g62
I1
ssg63
Nsg56
(lp3706
g49
(g65
g51
NtRp3707
(dp3708
g54
(dp3709
sg63
g3703
sg56
(lp3710
g49
(g70
g51
NtRp3711
(dp3712
g54
(dp3713
sg63
g3707
sg56
(lp3714
g49
(g50
g51
NtRp3715
(dp3716
g54
(dp3717
g62
I1
ssg63
g3711
sg56
(lp3718
g3553
(S't\t\x00\x00\x00Kontroler'
tRp3719
asbasbasbag49
(g65
g51
NtRp3720
(dp3721
g54
(dp3722
sg63
g3703
sg56
(lp3723
g49
(g70
g51
NtRp3724
(dp3725
g54
(dp3726
sg63
g3720
sg56
(lp3727
g49
(g50
g51
NtRp3728
(dp3729
g54
(dp3730
g62
I1
ssg63
g3724
sg56
(lp3731
I00
asbasbasbag49
(g65
g51
NtRp3732
(dp3733
g54
(dp3734
sg63
g3703
sg56
(lp3735
g49
(g70
g51
NtRp3736
(dp3737
g54
(dp3738
sg63
g3732
sg56
(lp3739
g49
(g50
g51
NtRp3740
(dp3741
g54
(dp3742
g62
I1
ssg63
g3736
sg56
(lp3743
S'/admin/default/edit/ASA/controllers/default.py'
p3744
asbasbasbasbasbasbasbag49
(g65
g51
NtRp3745
(dp3746
g54
(dp3747
sg63
g3687
sg56
(lp3748
g49
(g70
g51
NtRp3749
(dp3750
g54
(dp3751
sg63
g3745
sg56
(lp3752
g49
(g50
g51
NtRp3753
(dp3754
g54
(dp3755
g62
I2
ssg63
g3749
sg56
(lp3756
g49
(g58
g51
NtRp3757
(dp3758
g54
(dp3759
g62
I1
ssg63
Nsg56
(lp3760
g49
(g65
g51
NtRp3761
(dp3762
g54
(dp3763
sg63
g3757
sg56
(lp3764
g49
(g70
g51
NtRp3765
(dp3766
g54
(dp3767
sg63
g3761
sg56
(lp3768
g49
(g50
g51
NtRp3769
(dp3770
g54
(dp3771
g62
I1
ssg63
g3765
sg56
(lp3772
g3553
(S't\x05\x00\x00\x00Widok'
tRp3773
asbasbasbag49
(g65
g51
NtRp3774
(dp3775
g54
(dp3776
sg63
g3757
sg56
(lp3777
g49
(g70
g51
NtRp3778
(dp3779
g54
(dp3780
sg63
g3774
sg56
(lp3781
g49
(g50
g51
NtRp3782
(dp3783
g54
(dp3784
g62
I1
ssg63
g3778
sg56
(lp3785
I00
asbasbasbag49
(g65
g51
NtRp3786
(dp3787
g54
(dp3788
sg63
g3757
sg56
(lp3789
g49
(g70
g51
NtRp3790
(dp3791
g54
(dp3792
sg63
g3786
sg56
(lp3793
g49
(g50
g51
NtRp3794
(dp3795
g54
(dp3796
g62
I1
ssg63
g3790
sg56
(lp3797
S'/admin/default/edit/ASA/views/default/add_points.html'
p3798
asbasbasbasbasbasbasbag49
(g65
g51
NtRp3799
(dp3800
g54
(dp3801
sg63
g3687
sg56
(lp3802
g49
(g70
g51
NtRp3803
(dp3804
g54
(dp3805
sg63
g3799
sg56
(lp3806
g49
(g50
g51
NtRp3807
(dp3808
g54
(dp3809
g62
I2
ssg63
g3803
sg56
(lp3810
g49
(g58
g51
NtRp3811
(dp3812
g54
(dp3813
g62
I1
ssg63
Nsg56
(lp3814
g49
(g65
g51
NtRp3815
(dp3816
g54
(dp3817
sg63
g3811
sg56
(lp3818
g49
(g70
g51
NtRp3819
(dp3820
g54
(dp3821
sg63
g3815
sg56
(lp3822
g49
(g50
g51
NtRp3823
(dp3824
g54
(dp3825
g62
I1
ssg63
g3819
sg56
(lp3826
g3553
(S's\x06\x00\x00\x00Uk\xc5\x82ad'
tRp3827
asbasbasbag49
(g65
g51
NtRp3828
(dp3829
g54
(dp3830
sg63
g3811
sg56
(lp3831
g49
(g70
g51
NtRp3832
(dp3833
g54
(dp3834
sg63
g3828
sg56
(lp3835
g49
(g50
g51
NtRp3836
(dp3837
g54
(dp3838
g62
I1
ssg63
g3832
sg56
(lp3839
I00
asbasbasbag49
(g65
g51
NtRp3840
(dp3841
g54
(dp3842
sg63
g3811
sg56
(lp3843
g49
(g70
g51
NtRp3844
(dp3845
g54
(dp3846
sg63
g3840
sg56
(lp3847
g49
(g50
g51
NtRp3848
(dp3849
g54
(dp3850
g62
I1
ssg63
g3844
sg56
(lp3851
S'/admin/default/edit/ASA/views/layout.html'
p3852
asbasbasbasbasbasbasbag49
(g65
g51
NtRp3853
(dp3854
g54
(dp3855
sg63
g3687
sg56
(lp3856
g49
(g70
g51
NtRp3857
(dp3858
g54
(dp3859
sg63
g3853
sg56
(lp3860
g49
(g50
g51
NtRp3861
(dp3862
g54
(dp3863
g62
I2
ssg63
g3857
sg56
(lp3864
g49
(g58
g51
NtRp3865
(dp3866
g54
(dp3867
g62
I1
ssg63
Nsg56
(lp3868
g49
(g65
g51
NtRp3869
(dp3870
g54
(dp3871
sg63
g3865
sg56
(lp3872
g49
(g70
g51
NtRp3873
(dp3874
g54
(dp3875
sg63
g3869
sg56
(lp3876
g49
(g50
g51
NtRp3877
(dp3878
g54
(dp3879
g62
I1
ssg63
g3873
sg56
(lp3880
g3553
(S's\x0e\x00\x00\x00Arkusz styl\xc3\xb3w'
tRp3881
asbasbasbag49
(g65
g51
NtRp3882
(dp3883
g54
(dp3884
sg63
g3865
sg56
(lp3885
g49
(g70
g51
NtRp3886
(dp3887
g54
(dp3888
sg63
g3882
sg56
(lp3889
g49
(g50
g51
NtRp3890
(dp3891
g54
(dp3892
g62
I1
ssg63
g3886
sg56
(lp3893
I00
asbasbasbag49
(g65
g51
NtRp3894
(dp3895
g54
(dp3896
sg63
g3865
sg56
(lp3897
g49
(g70
g51
NtRp3898
(dp3899
g54
(dp3900
sg63
g3894
sg56
(lp3901
g49
(g50
g51
NtRp3902
(dp3903
g54
(dp3904
g62
I1
ssg63
g3898
sg56
(lp3905
S'/admin/default/edit/ASA/static/base.css'
p3906
asbasbasbasbasbasbasbag49
(g65
g51
NtRp3907
(dp3908
g54
(dp3909
sg63
g3687
sg56
(lp3910
g49
(g70
g51
NtRp3911
(dp3912
g54
(dp3913
sg63
g3907
sg56
(lp3914
g49
(g50
g51
NtRp3915
(dp3916
g54
(dp3917
g62
I2
ssg63
g3911
sg56
(lp3918
g49
(g58
g51
NtRp3919
(dp3920
g54
(dp3921
g62
I1
ssg63
Nsg56
(lp3922
g49
(g65
g51
NtRp3923
(dp3924
g54
(dp3925
sg63
g3919
sg56
(lp3926
g49
(g70
g51
NtRp3927
(dp3928
g54
(dp3929
sg63
g3923
sg56
(lp3930
g49
(g50
g51
NtRp3931
(dp3932
g54
(dp3933
g62
I1
ssg63
g3927
sg56
(lp3934
g3553
(S's\x11\x00\x00\x00Model bazy danych'
tRp3935
asbasbasbag49
(g65
g51
NtRp3936
(dp3937
g54
(dp3938
sg63
g3919
sg56
(lp3939
g49
(g70
g51
NtRp3940
(dp3941
g54
(dp3942
sg63
g3936
sg56
(lp3943
g49
(g50
g51
NtRp3944
(dp3945
g54
(dp3946
g62
I1
ssg63
g3940
sg56
(lp3947
I00
asbasbasbag49
(g65
g51
NtRp3948
(dp3949
g54
(dp3950
sg63
g3919
sg56
(lp3951
g49
(g70
g51
NtRp3952
(dp3953
g54
(dp3954
sg63
g3948
sg56
(lp3955
g49
(g50
g51
NtRp3956
(dp3957
g54
(dp3958
g62
I1
ssg63
g3952
sg56
(lp3959
S'/admin/default/edit/ASA/models/db.py'
p3960
asbasbasbasbasbasbasbag49
(g65
g51
NtRp3961
(dp3962
g54
(dp3963
sg63
g3687
sg56
(lp3964
g49
(g70
g51
NtRp3965
(dp3966
g54
(dp3967
sg63
g3961
sg56
(lp3968
g49
(g50
g51
NtRp3969
(dp3970
g54
(dp3971
g62
I2
ssg63
g3965
sg56
(lp3972
g49
(g58
g51
NtRp3973
(dp3974
g54
(dp3975
g62
I1
ssg63
Nsg56
(lp3976
g49
(g65
g51
NtRp3977
(dp3978
g54
(dp3979
sg63
g3973
sg56
(lp3980
g49
(g70
g51
NtRp3981
(dp3982
g54
(dp3983
sg63
g3977
sg56
(lp3984
g49
(g50
g51
NtRp3985
(dp3986
g54
(dp3987
g62
I1
ssg63
g3981
sg56
(lp3988
g3553
(S's\n\x00\x00\x00Model menu'
tRp3989
asbasbasbag49
(g65
g51
NtRp3990
(dp3991
g54
(dp3992
sg63
g3973
sg56
(lp3993
g49
(g70
g51
NtRp3994
(dp3995
g54
(dp3996
sg63
g3990
sg56
(lp3997
g49
(g50
g51
NtRp3998
(dp3999
g54
(dp4000
g62
I1
ssg63
g3994
sg56
(lp4001
I00
asbasbasbag49
(g65
g51
NtRp4002
(dp4003
g54
(dp4004
sg63
g3973
sg56
(lp4005
g49
(g70
g51
NtRp4006
(dp4007
g54
(dp4008
sg63
g4002
sg56
(lp4009
g49
(g50
g51
NtRp4010
(dp4011
g54
(dp4012
g62
I1
ssg63
g4006
sg56
(lp4013
S'/admin/default/edit/ASA/models/menu.py'
p4014
asbasbasbasbasbasbasbag49
(g65
g51
NtRp4015
(dp4016
g54
(dp4017
sg63
g3687
sg56
(lp4018
g49
(g70
g51
NtRp4019
(dp4020
g54
(dp4021
sg63
g4015
sg56
(lp4022
g49
(g50
g51
NtRp4023
(dp4024
g54
(dp4025
g62
I2
ssg63
g4019
sg56
(lp4026
g49
(g58
g51
NtRp4027
(dp4028
g54
(dp4029
g62
I1
ssg63
Nsg56
(lp4030
g49
(g65
g51
NtRp4031
(dp4032
g54
(dp4033
sg63
g4027
sg56
(lp4034
g49
(g70
g51
NtRp4035
(dp4036
g54
(dp4037
sg63
g4031
sg56
(lp4038
g49
(g50
g51
NtRp4039
(dp4040
g54
(dp4041
g62
I1
ssg63
g4035
sg56
(lp4042
g3553
(S's\x0b\x00\x00\x00Baza danych'
tRp4043
asbasbasbag49
(g65
g51
NtRp4044
(dp4045
g54
(dp4046
sg63
g4027
sg56
(lp4047
g49
(g70
g51
NtRp4048
(dp4049
g54
(dp4050
sg63
g4044
sg56
(lp4051
g49
(g50
g51
NtRp4052
(dp4053
g54
(dp4054
g62
I1
ssg63
g4048
sg56
(lp4055
I00
asbasbasbag49
(g65
g51
NtRp4056
(dp4057
g54
(dp4058
sg63
g4027
sg56
(lp4059
g49
(g70
g51
NtRp4060
(dp4061
g54
(dp4062
sg63
g4056
sg56
(lp4063
g49
(g50
g51
NtRp4064
(dp4065
g54
(dp4066
g62
I1
ssg63
g4060
sg56
(lp4067
S'/ASA/appadmin/index'
p4068
asbasbasbasbasbasbasbasbasbasbasbasbasbasbasbasbasbasbasbag49
(g65
g51
NtRp4069
(dp4070
g54
(dp4071
sg63
g3080
sg56
(lp4072
g49
(g70
g51
NtRp4073
(dp4074
g54
(dp4075
g74
g75
ssg63
g4069
sg56
(lp4076
S'meta'
p4077
asbag49
(g70
g51
NtRp4078
(dp4079
g54
(dp4080
g81
g82
ssg63
g4069
sg56
(lp4081
S':'
asbag49
(g70
g51
NtRp4082
(dp4083
g54
(dp4084
sg63
g4069
sg56
(lp4085
g49
(g50
g51
NtRp4086
(dp4087
g54
(dp4088
g62
I5
ssg63
g4082
sg56
(lp4089
g49
(g58
g51
NtRp4090
(dp4091
g54
(dp4092
g62
I4
ssg63
Nsg56
(lp4093
sbasbasbasbag49
(g65
g51
NtRp4094
(dp4095
g54
(dp4096
sg63
g3080
sg56
(lp4097
g49
(g70
g51
NtRp4098
(dp4099
g54
(dp4100
g74
g75
ssg63
g4094
sg56
(lp4101
S'postprocessing'
p4102
asbag49
(g70
g51
NtRp4103
(dp4104
g54
(dp4105
g81
g82
ssg63
g4094
sg56
(lp4106
S':'
asbag49
(g70
g51
NtRp4107
(dp4108
g54
(dp4109
sg63
g4094
sg56
(lp4110
g49
(g50
g51
NtRp4111
(dp4112
g54
(dp4113
g62
I5
ssg63
g4107
sg56
(lp4114
g49
(g58
g51
NtRp4115
(dp4116
g54
(dp4117
g62
I4
ssg63
Nsg56
(lp4118
sbasbasbasbag49
(g65
g51
NtRp4119
(dp4120
g54
(dp4121
sg63
g3080
sg56
(lp4122
g49
(g70
g51
NtRp4123
(dp4124
g54
(dp4125
g74
g75
ssg63
g4119
sg56
(lp4126
S'session_file'
p4127
asbag49
(g70
g51
NtRp4128
(dp4129
g54
(dp4130
g81
g82
ssg63
g4119
sg56
(lp4131
S':'
asbag49
(g70
g51
NtRp4132
(dp4133
g54
(dp4134
sg63
g4119
sg56
(lp4135
g49
(g50
g51
NtRp4136
(dp4137
g54
(dp4138
g62
I5
ssg63
g4132
sg56
(lp4139
S"<open file 'D:\\UCZELNIA\\ELKA\\tin\\web2py\\web2py_win\\web2py\\applications\\ASA\\sessions\\127.0.0.1-e0241e6a-d76e-4a96-90ff-9a64d2380ff9', mode 'rb+' at 0x0612F0F8>"
p4140
asbasbasbag49
(g65
g51
NtRp4141
(dp4142
g54
(dp4143
sg63
g3080
sg56
(lp4144
g49
(g70
g51
NtRp4145
(dp4146
g54
(dp4147
g74
g75
ssg63
g4141
sg56
(lp4148
S'session_filename'
p4149
asbag49
(g70
g51
NtRp4150
(dp4151
g54
(dp4152
g81
g82
ssg63
g4141
sg56
(lp4153
S':'
asbag49
(g70
g51
NtRp4154
(dp4155
g54
(dp4156
sg63
g4141
sg56
(lp4157
g49
(g50
g51
NtRp4158
(dp4159
g54
(dp4160
g62
I5
ssg63
g4154
sg56
(lp4161
S'D:\\UCZELNIA\\ELKA\\tin\\web2py\\web2py_win\\web2py\\applications\\ASA\\sessions\\127.0.0.1-e0241e6a-d76e-4a96-90ff-9a64d2380ff9'
p4162
asbasbasbag49
(g65
g51
NtRp4163
(dp4164
g54
(dp4165
sg63
g3080
sg56
(lp4166
g49
(g70
g51
NtRp4167
(dp4168
g54
(dp4169
g74
g75
ssg63
g4163
sg56
(lp4170
S'session_id'
p4171
asbag49
(g70
g51
NtRp4172
(dp4173
g54
(dp4174
g81
g82
ssg63
g4163
sg56
(lp4175
S':'
asbag49
(g70
g51
NtRp4176
(dp4177
g54
(dp4178
sg63
g4163
sg56
(lp4179
g49
(g50
g51
NtRp4180
(dp4181
g54
(dp4182
g62
I5
ssg63
g4176
sg56
(lp4183
S'127.0.0.1-e0241e6a-d76e-4a96-90ff-9a64d2380ff9'
p4184
asbasbasbag49
(g65
g51
NtRp4185
(dp4186
g54
(dp4187
sg63
g3080
sg56
(lp4188
g49
(g70
g51
NtRp4189
(dp4190
g54
(dp4191
g74
g75
ssg63
g4185
sg56
(lp4192
S'session_id_name'
p4193
asbag49
(g70
g51
NtRp4194
(dp4195
g54
(dp4196
g81
g82
ssg63
g4185
sg56
(lp4197
S':'
asbag49
(g70
g51
NtRp4198
(dp4199
g54
(dp4200
sg63
g4185
sg56
(lp4201
g49
(g50
g51
NtRp4202
(dp4203
g54
(dp4204
g62
I5
ssg63
g4198
sg56
(lp4205
g3137
asbasbasbag49
(g65
g51
NtRp4206
(dp4207
g54
(dp4208
sg63
g3080
sg56
(lp4209
g49
(g70
g51
NtRp4210
(dp4211
g54
(dp4212
g74
g75
ssg63
g4206
sg56
(lp4213
S'session_locked'
p4214
asbag49
(g70
g51
NtRp4215
(dp4216
g54
(dp4217
g81
g82
ssg63
g4206
sg56
(lp4218
S':'
asbag49
(g70
g51
NtRp4219
(dp4220
g54
(dp4221
sg63
g4206
sg56
(lp4222
g49
(g50
g51
NtRp4223
(dp4224
g54
(dp4225
g62
I5
ssg63
g4219
sg56
(lp4226
g1610
asbasbasbag49
(g65
g51
NtRp4227
(dp4228
g54
(dp4229
sg63
g3080
sg56
(lp4230
g49
(g70
g51
NtRp4231
(dp4232
g54
(dp4233
g74
g75
ssg63
g4227
sg56
(lp4234
S'session_new'
p4235
asbag49
(g70
g51
NtRp4236
(dp4237
g54
(dp4238
g81
g82
ssg63
g4227
sg56
(lp4239
S':'
asbag49
(g70
g51
NtRp4240
(dp4241
g54
(dp4242
sg63
g4227
sg56
(lp4243
g49
(g50
g51
NtRp4244
(dp4245
g54
(dp4246
g62
I5
ssg63
g4240
sg56
(lp4247
g92
asbasbasbag49
(g65
g51
NtRp4248
(dp4249
g54
(dp4250
sg63
g3080
sg56
(lp4251
g49
(g70
g51
NtRp4252
(dp4253
g54
(dp4254
g74
g75
ssg63
g4248
sg56
(lp4255
S'status'
p4256
asbag49
(g70
g51
NtRp4257
(dp4258
g54
(dp4259
g81
g82
ssg63
g4248
sg56
(lp4260
S':'
asbag49
(g70
g51
NtRp4261
(dp4262
g54
(dp4263
sg63
g4248
sg56
(lp4264
g49
(g50
g51
NtRp4265
(dp4266
g54
(dp4267
g62
I5
ssg63
g4261
sg56
(lp4268
S'200'
p4269
asbasbasbag49
(g65
g51
NtRp4270
(dp4271
g54
(dp4272
sg63
g3080
sg56
(lp4273
g49
(g70
g51
NtRp4274
(dp4275
g54
(dp4276
g74
g75
ssg63
g4270
sg56
(lp4277
S'subtitle'
p4278
asbag49
(g70
g51
NtRp4279
(dp4280
g54
(dp4281
g81
g82
ssg63
g4270
sg56
(lp4282
S':'
asbag49
(g70
g51
NtRp4283
(dp4284
g54
(dp4285
sg63
g4270
sg56
(lp4286
g49
(g50
g51
NtRp4287
(dp4288
g54
(dp4289
g62
I5
ssg63
g4283
sg56
(lp4290
g3553
(S's\x0e\x00\x00\x00dostosuj mnie!'
tRp4291
asbasbasbag49
(g65
g51
NtRp4292
(dp4293
g54
(dp4294
sg63
g3080
sg56
(lp4295
g49
(g70
g51
NtRp4296
(dp4297
g54
(dp4298
g74
g75
ssg63
g4292
sg56
(lp4299
S'title'
p4300
asbag49
(g70
g51
NtRp4301
(dp4302
g54
(dp4303
g81
g82
ssg63
g4292
sg56
(lp4304
S':'
asbag49
(g70
g51
NtRp4305
(dp4306
g54
(dp4307
sg63
g4292
sg56
(lp4308
g49
(g50
g51
NtRp4309
(dp4310
g54
(dp4311
g62
I5
ssg63
g4305
sg56
(lp4312
g114
asbasbasbag49
(g65
g51
NtRp4313
(dp4314
g54
(dp4315
sg63
g3080
sg56
(lp4316
g49
(g70
g51
NtRp4317
(dp4318
g54
(dp4319
g74
g75
ssg63
g4313
sg56
(lp4320
g2296
asbag49
(g70
g51
NtRp4321
(dp4322
g54
(dp4323
g81
g82
ssg63
g4313
sg56
(lp4324
S':'
asbag49
(g70
g51
NtRp4325
(dp4326
g54
(dp4327
sg63
g4313
sg56
(lp4328
g49
(g50
g51
NtRp4329
(dp4330
g54
(dp4331
g62
I5
ssg63
g4325
sg56
(lp4332
g2309
asbasbasbag49
(g65
g51
NtRp4333
(dp4334
g54
(dp4335
sg63
g3080
sg56
(lp4336
g49
(g70
g51
NtRp4337
(dp4338
g54
(dp4339
g74
g75
ssg63
g4333
sg56
(lp4340
S'view'
p4341
asbag49
(g70
g51
NtRp4342
(dp4343
g54
(dp4344
g81
g82
ssg63
g4333
sg56
(lp4345
S':'
asbag49
(g70
g51
NtRp4346
(dp4347
g54
(dp4348
sg63
g4333
sg56
(lp4349
g49
(g50
g51
NtRp4350
(dp4351
g54
(dp4352
g62
I5
ssg63
g4346
sg56
(lp4353
S'default/add_points.html'
p4354
asbasbasbasbasbsS'locals'
p4355
(dp4356
S'p_lng'
p4357
S'[]'
p4358
sS'inside'
p4359
g92
sS'n'
S'0'
sS'p_lat'
p4360
S'[]'
p4361
sS'y'
S"'21.01392316792044'"
p4362
sS'x'
S"'52.21867175163748'"
p4363
sssS'traceback'
p4364
S'Traceback (most recent call last):\n  File "gluon/restricted.py", line 204, in restricted\n  File "D:\\UCZELNIA\\ELKA\\tin\\web2py\\web2py_win\\web2py\\applications\\ASA\\controllers/default.py", line 229, in <module>\n  File "gluon/globals.py", line 172, in <lambda>\n  File "D:\\UCZELNIA\\ELKA\\tin\\web2py\\web2py_win\\web2py\\applications\\ASA\\controllers/default.py", line 213, in add_points\n  File "D:\\UCZELNIA\\ELKA\\tin\\web2py\\web2py_win\\web2py\\applications\\ASA\\controllers/default.py", line 165, in point_inside_polygon\nIndexError: list index out of range\n'
p4365
s.