(dp1
S'output'
p2
S"<type 'exceptions.UnboundLocalError'> local variable 'obszar_lat' referenced before assignment"
p3
sS'layer'
p4
S'D:\\UCZELNIA\\ELKA\\tin\\web2py\\web2py_win\\web2py\\applications\\ASA\\controllers/default.py'
p5
sS'code'
p6
S'# -*- coding: utf-8 -*- \n\n#########################################################################\n## This is a samples controller\n## - index is the default action of any application\n## - user is required for authentication and authorization\n## - download is for downloading files uploaded in the db (does streaming)\n## - call exposes all registered services (none by default)\n#########################################################################  \n\nimport datetime\n\ndef index():\n    if auth.user:\n        postcard = db(db.postcard.created_by==auth.user_id).select().first()\n        form = crud.update(db.postcard,postcard,next=URL(r=request))\n    else:\n        form = None    \n    postcards = db(db.postcard.id>0).select()\n    pracownicy = db(db.pracownik.imei>0).select()\n    #logi       = db(db.log.id>0).select()\n    return dict(form = form, postcards=postcards, pracownicy=pracownicy)  \n\ndef user():\n    """\n    exposes:\n    http://..../[app]/default/user/login \n    http://..../[app]/default/user/logout\n    http://..../[app]/default/user/register\n    http://..../[app]/default/user/profile\n    http://..../[app]/default/user/retrieve_password\n    http://..../[app]/default/user/change_password\n    use @auth.requires_login()\n        @auth.requires_membership(\'group name\')\n        @auth.requires_permission(\'read\',\'table name\',record_id)\n    to decorate functions that need access control\n    """\n    return dict(form=auth())\n    \ndef zaznacz_obszar():\n    txt = request.vars.id_prac\n    txt_l = txt.split("?")\n    id_prac=txt_l[0]\n    \n    pracownicy = db(db.pracownik.id==id_prac).select()\n    return dict(form= None, pracownicy=pracownicy)\n    \n    \ndef history():\n    txt = request.vars.id_prac\n    txt_l = txt.split("?")\n    id_prac=txt_l[0]\n    if txt_l[1]==\'n\':    #ustawiamy nowy obszar\n        print \'nowy_obszar\'\n        db(db.punkt_obszaru.id_pracownik==id_prac).delete()\n        k = len(txt_l)\n        i=2    #ile wczytanych\n        while i+2<=k :\n            db.punkt_obszaru.insert(id_pracownik = id_prac, latitude=txt_l[i], longitude=txt_l[i+1])   \n            i=i+2\n        okres = 10080\n        akt_set = db(db.pracownik.id==id_prac)\n        akt_set.update(nowy_obszar = 1)\n       #normalna prosba o historie\n    else:\n        okres = int(txt_l[1])\n    temp_str = str(datetime.datetime.today()-datetime.timedelta(minutes=okres))\n    #query = (db.log.id_pracownik==id_prac) & (db.log.czas>\'2012-01-07 23:34:30\')\n    query = (db.log.id_pracownik==id_prac) & (db.log.czas>temp_str)\n    logi  = db(query).select()\n    query = (db.punkt_obszaru.id_pracownik==id_prac)\n    punkty_obszaru  = db(query).select()\n    pracownicy = db(db.pracownik.id==id_prac).select()\n    return dict(form= None, logi=logi, punkty_obszaru=punkty_obszaru, pracownicy=pracownicy)\n\ndef download():\n    """\n    allows downloading of uploaded files\n    http://..../[app]/default/download/[filename]\n    """\n    return response.download(request,db)\n\n\ndef call():\n    """\n    exposes services. for example:\n    http://..../[app]/default/call/jsonrpc\n    decorate with @services.jsonrpc the functions to expose\n    supports xml, json, xmlrpc, jsonrpc, amfrpc, rss, csv\n    """\n    session.forget()\n    return service()\n    \ndef new_position():\n    txt = request.vars.position\n    txt_l=txt.split("?")\n    \n    if db(db.pracownik.imei==txt_l[0]).select():    #jezeli istnieje taki pracownik w bazie danych\n        id_prac = db(db.pracownik.imei==txt_l[0]).select().first().id     #id pracownika o danym imei\n        akt_id = db.log.insert(id_pracownik = id_prac)    #nowy rekord do log, akt_id - id logu\n        \n        \n        obszar_lat=[]\n        obszar_lng=[]\n        \n        query_pkt = (db.punkt_obszaru.id_pracownik==id_prac) \n        punkty_obszaru  = db(query_pkt).select() \n        for row in punkty_obszaru:     #kolejne punkty obszaru\n            obszar_lat.append(row.latitude)\n            obszar_lng.append(row.longitude)\n            \n\n        lat = float(txt_l[1])\n        lng = float(txt_l[2])\n        \n        \n            \n        czy_wewnatrz = point_inside_polygon(lat,lng,obszar_lat,obszar_lng)         \n        #ustawienie tabeli log\n        akt_set = db(db.log.id==akt_id)\n        akt_set.update(latitude = txt_l[1])\n        akt_set.update(longitude= txt_l[2])\n        akt_set.update(dokladnosc= txt_l[3])\n        akt_set.update(w_obszarze= czy_wewnatrz)\n        akt_set.update(czas= datetime.datetime.today())\n        #ustawienie tabeli pracownik\n        akt_set = db(db.pracownik.imei==txt_l[0])\n        akt_set.update(latitude = txt_l[1])\n        akt_set.update(longitude= txt_l[2])\n        akt_set.update(dokladnosc= txt_l[3])\n        akt_set.update(w_obszarze= czy_wewnatrz)   \n        akt_set.update(czas= datetime.datetime.today())\n        print datetime.datetime.today(), \'aktualizuje [imei, lat, long, acc]:\'\n        print txt_l\n        \n        query = (db.pracownik.id==id_prac) \n        pracownicy  = db(query).select() \n        for row in pracownicy: \n            nowy_obszar = row.nowy_obszar\n            \n        if txt_l[3]==\'0\':\n            nowy_obszar=1    \n            \n        if nowy_obszar==0:    #nie aktualizujemy\n            return \'# nie aktualizujemy obszaru\'\n            \n        msg = \'\'\n        query_pkt = (db.punkt_obszaru.id_pracownik==id_prac) \n        punkty_obszaru  = db(query_pkt).select() \n        for row in punkty_obszaru:     #kolejne punkty obszaru\n            msg = msg + str(row.latitude )+\' \'\n            msg = msg + str(row.longitude)+\' \'\n        akt_set = db(db.pracownik.id==id_prac)\n        akt_set.update(nowy_obszar = 0)\n        return msg\n    return \'# nie ma takiego pracownika\'\n        #return XML(UL(*[LI(A(\'%s - %s \' % (row.model,row.year),_href=URL(\'details\',args=row.id)))\\\n        #           for row in rows]))\n        \ndef point_inside_polygon(x,y,p_lat, p_lng):\n\n    n = len(p_lat)\n    inside =False\n\n    p1x = p_lat[0]\n    p1y = p_lng[0]\n    \n    for i in range(n+1):\n        p2x = p_lat[i%n]\n        p2y = p_lng[i%n]\n        if y > min(p1y,p2y):\n            if y <= max(p1y,p2y):\n                if x <= max(p1x,p2x):\n                    if p1y != p2y:\n                        xinters = (y-p1y)*(p2x-p1x)/(p2y-p1y)+p1x\n                    if p1x == p2x or x <= xinters:\n                        inside = not inside\n        p1x,p1y = p2x,p2y\n\n    return inside\n\ndef generate():\n    txt = request.vars.id_prac\n    txt_l = txt.split("?")\n    id_prac=txt_l[0]\n    \n    pracownicy = db(db.pracownik.id==id_prac).select()\n    return dict(form= None, pracownicy=pracownicy)\n\ndef add_points():\n    txt = request.vars.id_prac\n    txt_l = txt.split("?")\n    id_prac=txt_l[0]\n    if txt_l[1]==\'n\':    #ustawiamy nowy obszar\n        print \'nowy_obszar\'\n        db(db.punkt_obszaru.id_pracownik==id_prac).delete()\n        k = len(txt_l)\n        i=2    #ile wczytanych\n        teraz = datetime.datetime.today() - datetime.timedelta(minutes=74)\n        delta = datetime.timedelta(seconds=15)\n        while i+2<=k :\n            czy_wewnatrz = point_inside_polygon(txt_l[i],txt_l[i+1],obszar_lat,obszar_lng)  \n            db.log.insert(id_pracownik = id_prac, czas = teraz, latitude=txt_l[i], longitude=txt_l[i+1], dokladnosc = 3.0, w_obszarze = czy_wewnatrz)   #todo\n            i=i+2\n            teraz=teraz+delta\n        #ustawienie tabeli pracownik\n        teraz=teraz-delta\n        \n        obszar_lat=[]\n        obszar_lng=[]\n        \n        query_pkt = (db.punkt_obszaru.id_pracownik==id_prac) \n        punkty_obszaru  = db(query_pkt).select() \n        for row in punkty_obszaru:     #kolejne punkty obszaru\n            obszar_lat.append(row.latitude)\n            obszar_lng.append(row.longitude)\n            \n        \n        \n        akt_set = db(db.pracownik.id==txt_l[0])\n        akt_set.update(latitude = txt_l[i-2])\n        akt_set.update(longitude= txt_l[i-1])\n        akt_set.update(czas= teraz)\n        akt_set.update(dokladnosc= 3.0)\n        akt_set.update(w_obszarze= czy_wewnatrz)\n        return \'dodano\'\n    return \'nie dodano\'\n\nresponse._vars=response._caller(add_points)\n'
p7
sS'snapshot'
p8
(dp9
S'exception'
p10
(dp11
S'__hash__'
p12
S"<method-wrapper '__hash__' of exceptions.UnboundLocalError object at 0x06D69EB8>"
p13
sS'__setattr__'
p14
S"<method-wrapper '__setattr__' of exceptions.UnboundLocalError object at 0x06D69EB8>"
p15
sS'__reduce_ex__'
p16
S'<built-in method __reduce_ex__ of exceptions.UnboundLocalError object at 0x06D69EB8>'
p17
sS'__getslice__'
p18
S"<method-wrapper '__getslice__' of exceptions.UnboundLocalError object at 0x06D69EB8>"
p19
sS'__getitem__'
p20
S"<method-wrapper '__getitem__' of exceptions.UnboundLocalError object at 0x06D69EB8>"
p21
sS'__setstate__'
p22
S'<built-in method __setstate__ of exceptions.UnboundLocalError object at 0x06D69EB8>'
p23
sS'__reduce__'
p24
S'<built-in method __reduce__ of exceptions.UnboundLocalError object at 0x06D69EB8>'
p25
sS'__str__'
p26
S"<method-wrapper '__str__' of exceptions.UnboundLocalError object at 0x06D69EB8>"
p27
sS'args'
p28
S'("local variable \'obszar_lat\' referenced before assignment",)'
p29
sS'__getattribute__'
p30
S"<method-wrapper '__getattribute__' of exceptions.UnboundLocalError object at 0x06D69EB8>"
p31
sS'__class__'
p32
S"<type 'exceptions.UnboundLocalError'>"
p33
sS'__delattr__'
p34
S"<method-wrapper '__delattr__' of exceptions.UnboundLocalError object at 0x06D69EB8>"
p35
sS'__repr__'
p36
S"<method-wrapper '__repr__' of exceptions.UnboundLocalError object at 0x06D69EB8>"
p37
sS'__dict__'
p38
S'{}'
p39
sS'__doc__'
p40
S"'Local name referenced but not bound to a value.'"
p41
sS'__init__'
p42
S"<method-wrapper '__init__' of exceptions.UnboundLocalError object at 0x06D69EB8>"
p43
sS'__new__'
p44
S'<built-in method __new__ of type object at 0x1E1CD9A0>'
p45
ssS'evalue'
p46
S"local variable 'obszar_lat' referenced before assignment"
p47
sS'request'
p48
ccopy_reg
_reconstructor
p49
(cgluon.html
BEAUTIFY
p50
c__builtin__
object
p51
NtRp52
(dp53
S'attributes'
p54
(dp55
sS'components'
p56
(lp57
g49
(cgluon.html
TABLE
p58
g51
NtRp59
(dp60
g54
(dp61
S'level'
p62
I5
ssS'parent'
p63
Nsg56
(lp64
g49
(cgluon.html
TR
p65
g51
NtRp66
(dp67
g54
(dp68
sg63
g59
sg56
(lp69
g49
(cgluon.html
TD
p70
g51
NtRp71
(dp72
g54
(dp73
S'_style'
p74
S'font-weight:bold;vertical-align:top'
p75
ssg63
g66
sg56
(lp76
S'ajax'
p77
asbag49
(g70
g51
NtRp78
(dp79
g54
(dp80
S'_valign'
p81
S'top'
p82
ssg63
g66
sg56
(lp83
S':'
asbag49
(g70
g51
NtRp84
(dp85
g54
(dp86
sg63
g66
sg56
(lp87
g49
(g50
g51
NtRp88
(dp89
g54
(dp90
g62
I5
ssg63
g84
sg56
(lp91
S'False'
p92
asbasbasbag49
(g65
g51
NtRp93
(dp94
g54
(dp95
sg63
g59
sg56
(lp96
g49
(g70
g51
NtRp97
(dp98
g54
(dp99
g74
g75
ssg63
g93
sg56
(lp100
S'application'
p101
asbag49
(g70
g51
NtRp102
(dp103
g54
(dp104
g81
g82
ssg63
g93
sg56
(lp105
S':'
asbag49
(g70
g51
NtRp106
(dp107
g54
(dp108
sg63
g93
sg56
(lp109
g49
(g50
g51
NtRp110
(dp111
g54
(dp112
g62
I5
ssg63
g106
sg56
(lp113
S'ASA'
p114
asbasbasbag49
(g65
g51
NtRp115
(dp116
g54
(dp117
sg63
g59
sg56
(lp118
g49
(g70
g51
NtRp119
(dp120
g54
(dp121
g74
g75
ssg63
g115
sg56
(lp122
g28
asbag49
(g70
g51
NtRp123
(dp124
g54
(dp125
g81
g82
ssg63
g115
sg56
(lp126
S':'
asbag49
(g70
g51
NtRp127
(dp128
g54
(dp129
sg63
g115
sg56
(lp130
g49
(g50
g51
NtRp131
(dp132
g54
(dp133
g62
I5
ssg63
g127
sg56
(lp134
g49
(g58
g51
NtRp135
(dp136
g54
(dp137
g62
I4
ssg63
Nsg56
(lp138
sbasbasbasbag49
(g65
g51
NtRp139
(dp140
g54
(dp141
sg63
g59
sg56
(lp142
g49
(g70
g51
NtRp143
(dp144
g54
(dp145
g74
g75
ssg63
g139
sg56
(lp146
S'body'
p147
asbag49
(g70
g51
NtRp148
(dp149
g54
(dp150
g81
g82
ssg63
g139
sg56
(lp151
S':'
asbag49
(g70
g51
NtRp152
(dp153
g54
(dp154
sg63
g139
sg56
(lp155
g49
(g50
g51
NtRp156
(dp157
g54
(dp158
g62
I5
ssg63
g152
sg56
(lp159
S'<cStringIO.StringO object at 0x06D68D00>'
p160
asbasbasbag49
(g65
g51
NtRp161
(dp162
g54
(dp163
sg63
g59
sg56
(lp164
g49
(g70
g51
NtRp165
(dp166
g54
(dp167
g74
g75
ssg63
g161
sg56
(lp168
S'client'
p169
asbag49
(g70
g51
NtRp170
(dp171
g54
(dp172
g81
g82
ssg63
g161
sg56
(lp173
S':'
asbag49
(g70
g51
NtRp174
(dp175
g54
(dp176
sg63
g161
sg56
(lp177
g49
(g50
g51
NtRp178
(dp179
g54
(dp180
g62
I5
ssg63
g174
sg56
(lp181
S'127.0.0.1'
p182
asbasbasbag49
(g65
g51
NtRp183
(dp184
g54
(dp185
sg63
g59
sg56
(lp186
g49
(g70
g51
NtRp187
(dp188
g54
(dp189
g74
g75
ssg63
g183
sg56
(lp190
S'controller'
p191
asbag49
(g70
g51
NtRp192
(dp193
g54
(dp194
g81
g82
ssg63
g183
sg56
(lp195
S':'
asbag49
(g70
g51
NtRp196
(dp197
g54
(dp198
sg63
g183
sg56
(lp199
g49
(g50
g51
NtRp200
(dp201
g54
(dp202
g62
I5
ssg63
g196
sg56
(lp203
S'default'
p204
asbasbasbag49
(g65
g51
NtRp205
(dp206
g54
(dp207
sg63
g59
sg56
(lp208
g49
(g70
g51
NtRp209
(dp210
g54
(dp211
g74
g75
ssg63
g205
sg56
(lp212
S'cookies'
p213
asbag49
(g70
g51
NtRp214
(dp215
g54
(dp216
g81
g82
ssg63
g205
sg56
(lp217
S':'
asbag49
(g70
g51
NtRp218
(dp219
g54
(dp220
sg63
g205
sg56
(lp221
g49
(g50
g51
NtRp222
(dp223
g54
(dp224
g62
I5
ssg63
g218
sg56
(lp225
g49
(g58
g51
NtRp226
(dp227
g54
(dp228
g62
I4
ssg63
Nsg56
(lp229
g49
(g65
g51
NtRp230
(dp231
g54
(dp232
sg63
g226
sg56
(lp233
g49
(g70
g51
NtRp234
(dp235
g54
(dp236
g74
g75
ssg63
g230
sg56
(lp237
S'session_id_admin'
p238
asbag49
(g70
g51
NtRp239
(dp240
g54
(dp241
g81
g82
ssg63
g230
sg56
(lp242
S':'
asbag49
(g70
g51
NtRp243
(dp244
g54
(dp245
sg63
g230
sg56
(lp246
g49
(g50
g51
NtRp247
(dp248
g54
(dp249
g62
I4
ssg63
g243
sg56
(lp250
g49
(g58
g51
NtRp251
(dp252
g54
(dp253
g62
I3
ssg63
Nsg56
(lp254
g49
(g65
g51
NtRp255
(dp256
g54
(dp257
sg63
g251
sg56
(lp258
g49
(g70
g51
NtRp259
(dp260
g54
(dp261
g74
g75
ssg63
g255
sg56
(lp262
S'comment'
p263
asbag49
(g70
g51
NtRp264
(dp265
g54
(dp266
g81
g82
ssg63
g255
sg56
(lp267
S':'
asbag49
(g70
g51
NtRp268
(dp269
g54
(dp270
sg63
g255
sg56
(lp271
g49
(g50
g51
NtRp272
(dp273
g54
(dp274
g62
I3
ssg63
g268
sg56
(lp275
S''
asbasbasbag49
(g65
g51
NtRp276
(dp277
g54
(dp278
sg63
g251
sg56
(lp279
g49
(g70
g51
NtRp280
(dp281
g54
(dp282
g74
g75
ssg63
g276
sg56
(lp283
S'domain'
p284
asbag49
(g70
g51
NtRp285
(dp286
g54
(dp287
g81
g82
ssg63
g276
sg56
(lp288
S':'
asbag49
(g70
g51
NtRp289
(dp290
g54
(dp291
sg63
g276
sg56
(lp292
g49
(g50
g51
NtRp293
(dp294
g54
(dp295
g62
I3
ssg63
g289
sg56
(lp296
S''
asbasbasbag49
(g65
g51
NtRp297
(dp298
g54
(dp299
sg63
g251
sg56
(lp300
g49
(g70
g51
NtRp301
(dp302
g54
(dp303
g74
g75
ssg63
g297
sg56
(lp304
S'expires'
p305
asbag49
(g70
g51
NtRp306
(dp307
g54
(dp308
g81
g82
ssg63
g297
sg56
(lp309
S':'
asbag49
(g70
g51
NtRp310
(dp311
g54
(dp312
sg63
g297
sg56
(lp313
g49
(g50
g51
NtRp314
(dp315
g54
(dp316
g62
I3
ssg63
g310
sg56
(lp317
S''
asbasbasbag49
(g65
g51
NtRp318
(dp319
g54
(dp320
sg63
g251
sg56
(lp321
g49
(g70
g51
NtRp322
(dp323
g54
(dp324
g74
g75
ssg63
g318
sg56
(lp325
S'max-age'
p326
asbag49
(g70
g51
NtRp327
(dp328
g54
(dp329
g81
g82
ssg63
g318
sg56
(lp330
S':'
asbag49
(g70
g51
NtRp331
(dp332
g54
(dp333
sg63
g318
sg56
(lp334
g49
(g50
g51
NtRp335
(dp336
g54
(dp337
g62
I3
ssg63
g331
sg56
(lp338
S''
asbasbasbag49
(g65
g51
NtRp339
(dp340
g54
(dp341
sg63
g251
sg56
(lp342
g49
(g70
g51
NtRp343
(dp344
g54
(dp345
g74
g75
ssg63
g339
sg56
(lp346
S'path'
p347
asbag49
(g70
g51
NtRp348
(dp349
g54
(dp350
g81
g82
ssg63
g339
sg56
(lp351
S':'
asbag49
(g70
g51
NtRp352
(dp353
g54
(dp354
sg63
g339
sg56
(lp355
g49
(g50
g51
NtRp356
(dp357
g54
(dp358
g62
I3
ssg63
g352
sg56
(lp359
S''
asbasbasbag49
(g65
g51
NtRp360
(dp361
g54
(dp362
sg63
g251
sg56
(lp363
g49
(g70
g51
NtRp364
(dp365
g54
(dp366
g74
g75
ssg63
g360
sg56
(lp367
S'secure'
p368
asbag49
(g70
g51
NtRp369
(dp370
g54
(dp371
g81
g82
ssg63
g360
sg56
(lp372
S':'
asbag49
(g70
g51
NtRp373
(dp374
g54
(dp375
sg63
g360
sg56
(lp376
g49
(g50
g51
NtRp377
(dp378
g54
(dp379
g62
I3
ssg63
g373
sg56
(lp380
S''
asbasbasbag49
(g65
g51
NtRp381
(dp382
g54
(dp383
sg63
g251
sg56
(lp384
g49
(g70
g51
NtRp385
(dp386
g54
(dp387
g74
g75
ssg63
g381
sg56
(lp388
S'version'
p389
asbag49
(g70
g51
NtRp390
(dp391
g54
(dp392
g81
g82
ssg63
g381
sg56
(lp393
S':'
asbag49
(g70
g51
NtRp394
(dp395
g54
(dp396
sg63
g381
sg56
(lp397
g49
(g50
g51
NtRp398
(dp399
g54
(dp400
g62
I3
ssg63
g394
sg56
(lp401
S''
asbasbasbasbasbasbasbag49
(g65
g51
NtRp402
(dp403
g54
(dp404
sg63
g226
sg56
(lp405
g49
(g70
g51
NtRp406
(dp407
g54
(dp408
g74
g75
ssg63
g402
sg56
(lp409
S'session_id_asa'
p410
asbag49
(g70
g51
NtRp411
(dp412
g54
(dp413
g81
g82
ssg63
g402
sg56
(lp414
S':'
asbag49
(g70
g51
NtRp415
(dp416
g54
(dp417
sg63
g402
sg56
(lp418
g49
(g50
g51
NtRp419
(dp420
g54
(dp421
g62
I4
ssg63
g415
sg56
(lp422
g49
(g58
g51
NtRp423
(dp424
g54
(dp425
g62
I3
ssg63
Nsg56
(lp426
g49
(g65
g51
NtRp427
(dp428
g54
(dp429
sg63
g423
sg56
(lp430
g49
(g70
g51
NtRp431
(dp432
g54
(dp433
g74
g75
ssg63
g427
sg56
(lp434
g263
asbag49
(g70
g51
NtRp435
(dp436
g54
(dp437
g81
g82
ssg63
g427
sg56
(lp438
S':'
asbag49
(g70
g51
NtRp439
(dp440
g54
(dp441
sg63
g427
sg56
(lp442
g49
(g50
g51
NtRp443
(dp444
g54
(dp445
g62
I3
ssg63
g439
sg56
(lp446
S''
asbasbasbag49
(g65
g51
NtRp447
(dp448
g54
(dp449
sg63
g423
sg56
(lp450
g49
(g70
g51
NtRp451
(dp452
g54
(dp453
g74
g75
ssg63
g447
sg56
(lp454
g284
asbag49
(g70
g51
NtRp455
(dp456
g54
(dp457
g81
g82
ssg63
g447
sg56
(lp458
S':'
asbag49
(g70
g51
NtRp459
(dp460
g54
(dp461
sg63
g447
sg56
(lp462
g49
(g50
g51
NtRp463
(dp464
g54
(dp465
g62
I3
ssg63
g459
sg56
(lp466
S''
asbasbasbag49
(g65
g51
NtRp467
(dp468
g54
(dp469
sg63
g423
sg56
(lp470
g49
(g70
g51
NtRp471
(dp472
g54
(dp473
g74
g75
ssg63
g467
sg56
(lp474
g305
asbag49
(g70
g51
NtRp475
(dp476
g54
(dp477
g81
g82
ssg63
g467
sg56
(lp478
S':'
asbag49
(g70
g51
NtRp479
(dp480
g54
(dp481
sg63
g467
sg56
(lp482
g49
(g50
g51
NtRp483
(dp484
g54
(dp485
g62
I3
ssg63
g479
sg56
(lp486
S''
asbasbasbag49
(g65
g51
NtRp487
(dp488
g54
(dp489
sg63
g423
sg56
(lp490
g49
(g70
g51
NtRp491
(dp492
g54
(dp493
g74
g75
ssg63
g487
sg56
(lp494
g326
asbag49
(g70
g51
NtRp495
(dp496
g54
(dp497
g81
g82
ssg63
g487
sg56
(lp498
S':'
asbag49
(g70
g51
NtRp499
(dp500
g54
(dp501
sg63
g487
sg56
(lp502
g49
(g50
g51
NtRp503
(dp504
g54
(dp505
g62
I3
ssg63
g499
sg56
(lp506
S''
asbasbasbag49
(g65
g51
NtRp507
(dp508
g54
(dp509
sg63
g423
sg56
(lp510
g49
(g70
g51
NtRp511
(dp512
g54
(dp513
g74
g75
ssg63
g507
sg56
(lp514
g347
asbag49
(g70
g51
NtRp515
(dp516
g54
(dp517
g81
g82
ssg63
g507
sg56
(lp518
S':'
asbag49
(g70
g51
NtRp519
(dp520
g54
(dp521
sg63
g507
sg56
(lp522
g49
(g50
g51
NtRp523
(dp524
g54
(dp525
g62
I3
ssg63
g519
sg56
(lp526
S''
asbasbasbag49
(g65
g51
NtRp527
(dp528
g54
(dp529
sg63
g423
sg56
(lp530
g49
(g70
g51
NtRp531
(dp532
g54
(dp533
g74
g75
ssg63
g527
sg56
(lp534
g368
asbag49
(g70
g51
NtRp535
(dp536
g54
(dp537
g81
g82
ssg63
g527
sg56
(lp538
S':'
asbag49
(g70
g51
NtRp539
(dp540
g54
(dp541
sg63
g527
sg56
(lp542
g49
(g50
g51
NtRp543
(dp544
g54
(dp545
g62
I3
ssg63
g539
sg56
(lp546
S''
asbasbasbag49
(g65
g51
NtRp547
(dp548
g54
(dp549
sg63
g423
sg56
(lp550
g49
(g70
g51
NtRp551
(dp552
g54
(dp553
g74
g75
ssg63
g547
sg56
(lp554
g389
asbag49
(g70
g51
NtRp555
(dp556
g54
(dp557
g81
g82
ssg63
g547
sg56
(lp558
S':'
asbag49
(g70
g51
NtRp559
(dp560
g54
(dp561
sg63
g547
sg56
(lp562
g49
(g50
g51
NtRp563
(dp564
g54
(dp565
g62
I3
ssg63
g559
sg56
(lp566
S''
asbasbasbasbasbasbasbag49
(g65
g51
NtRp567
(dp568
g54
(dp569
sg63
g226
sg56
(lp570
g49
(g70
g51
NtRp571
(dp572
g54
(dp573
g74
g75
ssg63
g567
sg56
(lp574
S'session_id_welcome'
p575
asbag49
(g70
g51
NtRp576
(dp577
g54
(dp578
g81
g82
ssg63
g567
sg56
(lp579
S':'
asbag49
(g70
g51
NtRp580
(dp581
g54
(dp582
sg63
g567
sg56
(lp583
g49
(g50
g51
NtRp584
(dp585
g54
(dp586
g62
I4
ssg63
g580
sg56
(lp587
g49
(g58
g51
NtRp588
(dp589
g54
(dp590
g62
I3
ssg63
Nsg56
(lp591
g49
(g65
g51
NtRp592
(dp593
g54
(dp594
sg63
g588
sg56
(lp595
g49
(g70
g51
NtRp596
(dp597
g54
(dp598
g74
g75
ssg63
g592
sg56
(lp599
g263
asbag49
(g70
g51
NtRp600
(dp601
g54
(dp602
g81
g82
ssg63
g592
sg56
(lp603
S':'
asbag49
(g70
g51
NtRp604
(dp605
g54
(dp606
sg63
g592
sg56
(lp607
g49
(g50
g51
NtRp608
(dp609
g54
(dp610
g62
I3
ssg63
g604
sg56
(lp611
S''
asbasbasbag49
(g65
g51
NtRp612
(dp613
g54
(dp614
sg63
g588
sg56
(lp615
g49
(g70
g51
NtRp616
(dp617
g54
(dp618
g74
g75
ssg63
g612
sg56
(lp619
g284
asbag49
(g70
g51
NtRp620
(dp621
g54
(dp622
g81
g82
ssg63
g612
sg56
(lp623
S':'
asbag49
(g70
g51
NtRp624
(dp625
g54
(dp626
sg63
g612
sg56
(lp627
g49
(g50
g51
NtRp628
(dp629
g54
(dp630
g62
I3
ssg63
g624
sg56
(lp631
S''
asbasbasbag49
(g65
g51
NtRp632
(dp633
g54
(dp634
sg63
g588
sg56
(lp635
g49
(g70
g51
NtRp636
(dp637
g54
(dp638
g74
g75
ssg63
g632
sg56
(lp639
g305
asbag49
(g70
g51
NtRp640
(dp641
g54
(dp642
g81
g82
ssg63
g632
sg56
(lp643
S':'
asbag49
(g70
g51
NtRp644
(dp645
g54
(dp646
sg63
g632
sg56
(lp647
g49
(g50
g51
NtRp648
(dp649
g54
(dp650
g62
I3
ssg63
g644
sg56
(lp651
S''
asbasbasbag49
(g65
g51
NtRp652
(dp653
g54
(dp654
sg63
g588
sg56
(lp655
g49
(g70
g51
NtRp656
(dp657
g54
(dp658
g74
g75
ssg63
g652
sg56
(lp659
g326
asbag49
(g70
g51
NtRp660
(dp661
g54
(dp662
g81
g82
ssg63
g652
sg56
(lp663
S':'
asbag49
(g70
g51
NtRp664
(dp665
g54
(dp666
sg63
g652
sg56
(lp667
g49
(g50
g51
NtRp668
(dp669
g54
(dp670
g62
I3
ssg63
g664
sg56
(lp671
S''
asbasbasbag49
(g65
g51
NtRp672
(dp673
g54
(dp674
sg63
g588
sg56
(lp675
g49
(g70
g51
NtRp676
(dp677
g54
(dp678
g74
g75
ssg63
g672
sg56
(lp679
g347
asbag49
(g70
g51
NtRp680
(dp681
g54
(dp682
g81
g82
ssg63
g672
sg56
(lp683
S':'
asbag49
(g70
g51
NtRp684
(dp685
g54
(dp686
sg63
g672
sg56
(lp687
g49
(g50
g51
NtRp688
(dp689
g54
(dp690
g62
I3
ssg63
g684
sg56
(lp691
S''
asbasbasbag49
(g65
g51
NtRp692
(dp693
g54
(dp694
sg63
g588
sg56
(lp695
g49
(g70
g51
NtRp696
(dp697
g54
(dp698
g74
g75
ssg63
g692
sg56
(lp699
g368
asbag49
(g70
g51
NtRp700
(dp701
g54
(dp702
g81
g82
ssg63
g692
sg56
(lp703
S':'
asbag49
(g70
g51
NtRp704
(dp705
g54
(dp706
sg63
g692
sg56
(lp707
g49
(g50
g51
NtRp708
(dp709
g54
(dp710
g62
I3
ssg63
g704
sg56
(lp711
S''
asbasbasbag49
(g65
g51
NtRp712
(dp713
g54
(dp714
sg63
g588
sg56
(lp715
g49
(g70
g51
NtRp716
(dp717
g54
(dp718
g74
g75
ssg63
g712
sg56
(lp719
g389
asbag49
(g70
g51
NtRp720
(dp721
g54
(dp722
g81
g82
ssg63
g712
sg56
(lp723
S':'
asbag49
(g70
g51
NtRp724
(dp725
g54
(dp726
sg63
g712
sg56
(lp727
g49
(g50
g51
NtRp728
(dp729
g54
(dp730
g62
I3
ssg63
g724
sg56
(lp731
S''
asbasbasbasbasbasbasbasbasbasbasbag49
(g65
g51
NtRp732
(dp733
g54
(dp734
sg63
g59
sg56
(lp735
g49
(g70
g51
NtRp736
(dp737
g54
(dp738
g74
g75
ssg63
g732
sg56
(lp739
S'env'
p740
asbag49
(g70
g51
NtRp741
(dp742
g54
(dp743
g81
g82
ssg63
g732
sg56
(lp744
S':'
asbag49
(g70
g51
NtRp745
(dp746
g54
(dp747
sg63
g732
sg56
(lp748
g49
(g50
g51
NtRp749
(dp750
g54
(dp751
g62
I5
ssg63
g745
sg56
(lp752
g49
(g58
g51
NtRp753
(dp754
g54
(dp755
g62
I4
ssg63
Nsg56
(lp756
g49
(g65
g51
NtRp757
(dp758
g54
(dp759
sg63
g753
sg56
(lp760
g49
(g70
g51
NtRp761
(dp762
g54
(dp763
g74
g75
ssg63
g757
sg56
(lp764
S'app_folders'
p765
asbag49
(g70
g51
NtRp766
(dp767
g54
(dp768
g81
g82
ssg63
g757
sg56
(lp769
S':'
asbag49
(g70
g51
NtRp770
(dp771
g54
(dp772
sg63
g757
sg56
(lp773
g49
(g50
g51
NtRp774
(dp775
g54
(dp776
g62
I4
ssg63
g770
sg56
(lp777
S"set(['D:\\\\UCZELNIA\\\\ELKA\\\\tin\\\\web2py\\\\web2py_win\\\\web2py\\\\applications\\\\welcome\\\\', 'D:\\\\UCZELNIA\\\\ELKA\\\\tin\\\\web2py\\\\web2py_win\\\\web2py\\\\applications\\\\admin\\\\', 'D:\\\\UCZELNIA\\\\ELKA\\\\tin\\\\web2py\\\\web2py_win\\\\web2py\\\\applications\\\\ASA\\\\'])"
p778
asbasbasbag49
(g65
g51
NtRp779
(dp780
g54
(dp781
sg63
g753
sg56
(lp782
g49
(g70
g51
NtRp783
(dp784
g54
(dp785
g74
g75
ssg63
g779
sg56
(lp786
S'applications_parent'
p787
asbag49
(g70
g51
NtRp788
(dp789
g54
(dp790
g81
g82
ssg63
g779
sg56
(lp791
S':'
asbag49
(g70
g51
NtRp792
(dp793
g54
(dp794
sg63
g779
sg56
(lp795
g49
(g50
g51
NtRp796
(dp797
g54
(dp798
g62
I4
ssg63
g792
sg56
(lp799
S'D:\\UCZELNIA\\ELKA\\tin\\web2py\\web2py_win\\web2py'
p800
asbasbasbag49
(g65
g51
NtRp801
(dp802
g54
(dp803
sg63
g753
sg56
(lp804
g49
(g70
g51
NtRp805
(dp806
g54
(dp807
g74
g75
ssg63
g801
sg56
(lp808
S'cmd_args'
p809
asbag49
(g70
g51
NtRp810
(dp811
g54
(dp812
g81
g82
ssg63
g801
sg56
(lp813
S':'
asbag49
(g70
g51
NtRp814
(dp815
g54
(dp816
sg63
g801
sg56
(lp817
g49
(g50
g51
NtRp818
(dp819
g54
(dp820
g62
I4
ssg63
g814
sg56
(lp821
g49
(g58
g51
NtRp822
(dp823
g54
(dp824
g62
I3
ssg63
Nsg56
(lp825
sbasbasbasbag49
(g65
g51
NtRp826
(dp827
g54
(dp828
sg63
g753
sg56
(lp829
g49
(g70
g51
NtRp830
(dp831
g54
(dp832
g74
g75
ssg63
g826
sg56
(lp833
S'cmd_options'
p834
asbag49
(g70
g51
NtRp835
(dp836
g54
(dp837
g81
g82
ssg63
g826
sg56
(lp838
S':'
asbag49
(g70
g51
NtRp839
(dp840
g54
(dp841
sg63
g826
sg56
(lp842
g49
(g50
g51
NtRp843
(dp844
g54
(dp845
g62
I4
ssg63
g839
sg56
(lp846
S"<Values at 0x2cfc300: {'verbose': False, 'ip': '127.0.0.1', 'shutdown_timeout': 5, 'taskbar': False, 'nocron': False, 'pid_filename': 'httpserver.pid', 'maxthreads': None, 'softcron': False, 'server_name': 'hyden-PC', 'bpython': False, 'nogui': False, 'port': 8000, 'extcron': False, 'debuglevel': 30, 'test': None, 'folder': 'D:\\\\UCZELNIA\\\\ELKA\\\\tin\\\\web2py\\\\web2py_win\\\\web2py', 'config': '', 'import_models': False, 'winservice': '', 'shell': None, 'run': '', 'log_filename': 'httpserver.log', 'args': [''], 'socket_timeout': 1, 'ssl_ca_certificate': None, 'scheduler': None, 'profiler_filename': None, 'ssl_private_key': '', 'password': '<ask>', 'request_queue_size': 5, 'ssl_certificate': '', 'cronjob': False, 'numthreads': None, 'quiet': False, 'interfaces': None, 'minthreads': None, 'timeout': 10, 'plain': False, 'nobanner': False}>"
p847
asbasbasbag49
(g65
g51
NtRp848
(dp849
g54
(dp850
sg63
g753
sg56
(lp851
g49
(g70
g51
NtRp852
(dp853
g54
(dp854
g74
g75
ssg63
g848
sg56
(lp855
S'db_sessions'
p856
asbag49
(g70
g51
NtRp857
(dp858
g54
(dp859
g81
g82
ssg63
g848
sg56
(lp860
S':'
asbag49
(g70
g51
NtRp861
(dp862
g54
(dp863
sg63
g848
sg56
(lp864
g49
(g50
g51
NtRp865
(dp866
g54
(dp867
g62
I4
ssg63
g861
sg56
(lp868
S'set([])'
p869
asbasbasbag49
(g65
g51
NtRp870
(dp871
g54
(dp872
sg63
g753
sg56
(lp873
g49
(g70
g51
NtRp874
(dp875
g54
(dp876
g74
g75
ssg63
g870
sg56
(lp877
S'debugging'
p878
asbag49
(g70
g51
NtRp879
(dp880
g54
(dp881
g81
g82
ssg63
g870
sg56
(lp882
S':'
asbag49
(g70
g51
NtRp883
(dp884
g54
(dp885
sg63
g870
sg56
(lp886
g49
(g50
g51
NtRp887
(dp888
g54
(dp889
g62
I4
ssg63
g883
sg56
(lp890
g92
asbasbasbag49
(g65
g51
NtRp891
(dp892
g54
(dp893
sg63
g753
sg56
(lp894
g49
(g70
g51
NtRp895
(dp896
g54
(dp897
g74
g75
ssg63
g891
sg56
(lp898
S'gluon_parent'
p899
asbag49
(g70
g51
NtRp900
(dp901
g54
(dp902
g81
g82
ssg63
g891
sg56
(lp903
S':'
asbag49
(g70
g51
NtRp904
(dp905
g54
(dp906
sg63
g891
sg56
(lp907
g49
(g50
g51
NtRp908
(dp909
g54
(dp910
g62
I4
ssg63
g904
sg56
(lp911
S'D:\\UCZELNIA\\ELKA\\tin\\web2py\\web2py_win\\web2py'
p912
asbasbasbag49
(g65
g51
NtRp913
(dp914
g54
(dp915
sg63
g753
sg56
(lp916
g49
(g70
g51
NtRp917
(dp918
g54
(dp919
g74
g75
ssg63
g913
sg56
(lp920
S'http_accept'
p921
asbag49
(g70
g51
NtRp922
(dp923
g54
(dp924
g81
g82
ssg63
g913
sg56
(lp925
S':'
asbag49
(g70
g51
NtRp926
(dp927
g54
(dp928
sg63
g913
sg56
(lp929
g49
(g50
g51
NtRp930
(dp931
g54
(dp932
g62
I4
ssg63
g926
sg56
(lp933
S'text/html,application/xhtml+xml,application/xml;q=0.9,*/*;q=0.8'
p934
asbasbasbag49
(g65
g51
NtRp935
(dp936
g54
(dp937
sg63
g753
sg56
(lp938
g49
(g70
g51
NtRp939
(dp940
g54
(dp941
g74
g75
ssg63
g935
sg56
(lp942
S'http_accept_charset'
p943
asbag49
(g70
g51
NtRp944
(dp945
g54
(dp946
g81
g82
ssg63
g935
sg56
(lp947
S':'
asbag49
(g70
g51
NtRp948
(dp949
g54
(dp950
sg63
g935
sg56
(lp951
g49
(g50
g51
NtRp952
(dp953
g54
(dp954
g62
I4
ssg63
g948
sg56
(lp955
S'ISO-8859-2,utf-8;q=0.7,*;q=0.7'
p956
asbasbasbag49
(g65
g51
NtRp957
(dp958
g54
(dp959
sg63
g753
sg56
(lp960
g49
(g70
g51
NtRp961
(dp962
g54
(dp963
g74
g75
ssg63
g957
sg56
(lp964
S'http_accept_encoding'
p965
asbag49
(g70
g51
NtRp966
(dp967
g54
(dp968
g81
g82
ssg63
g957
sg56
(lp969
S':'
asbag49
(g70
g51
NtRp970
(dp971
g54
(dp972
sg63
g957
sg56
(lp973
g49
(g50
g51
NtRp974
(dp975
g54
(dp976
g62
I4
ssg63
g970
sg56
(lp977
S'gzip,deflate'
p978
asbasbasbag49
(g65
g51
NtRp979
(dp980
g54
(dp981
sg63
g753
sg56
(lp982
g49
(g70
g51
NtRp983
(dp984
g54
(dp985
g74
g75
ssg63
g979
sg56
(lp986
S'http_accept_language'
p987
asbag49
(g70
g51
NtRp988
(dp989
g54
(dp990
g81
g82
ssg63
g979
sg56
(lp991
S':'
asbag49
(g70
g51
NtRp992
(dp993
g54
(dp994
sg63
g979
sg56
(lp995
g49
(g50
g51
NtRp996
(dp997
g54
(dp998
g62
I4
ssg63
g992
sg56
(lp999
S'pl,en-us;q=0.7,en;q=0.3'
p1000
asbasbasbag49
(g65
g51
NtRp1001
(dp1002
g54
(dp1003
sg63
g753
sg56
(lp1004
g49
(g70
g51
NtRp1005
(dp1006
g54
(dp1007
g74
g75
ssg63
g1001
sg56
(lp1008
S'http_connection'
p1009
asbag49
(g70
g51
NtRp1010
(dp1011
g54
(dp1012
g81
g82
ssg63
g1001
sg56
(lp1013
S':'
asbag49
(g70
g51
NtRp1014
(dp1015
g54
(dp1016
sg63
g1001
sg56
(lp1017
g49
(g50
g51
NtRp1018
(dp1019
g54
(dp1020
g62
I4
ssg63
g1014
sg56
(lp1021
S'keep-alive'
p1022
asbasbasbag49
(g65
g51
NtRp1023
(dp1024
g54
(dp1025
sg63
g753
sg56
(lp1026
g49
(g70
g51
NtRp1027
(dp1028
g54
(dp1029
g74
g75
ssg63
g1023
sg56
(lp1030
S'http_cookie'
p1031
asbag49
(g70
g51
NtRp1032
(dp1033
g54
(dp1034
g81
g82
ssg63
g1023
sg56
(lp1035
S':'
asbag49
(g70
g51
NtRp1036
(dp1037
g54
(dp1038
sg63
g1023
sg56
(lp1039
g49
(g50
g51
NtRp1040
(dp1041
g54
(dp1042
g62
I4
ssg63
g1036
sg56
(lp1043
S'session_id_welcome=127.0.0.1-ec2d0a75-b5c9-4e96-ad47-0a4e962410c9; session_id_admin=127.0.0.1-ec258d56-d5bc-4ca8-88b1-895744aec544; session_id_asa=127.0.0.1-e0241e6a-d76e-4a96-90ff-9a64d2380ff9'
p1044
asbasbasbag49
(g65
g51
NtRp1045
(dp1046
g54
(dp1047
sg63
g753
sg56
(lp1048
g49
(g70
g51
NtRp1049
(dp1050
g54
(dp1051
g74
g75
ssg63
g1045
sg56
(lp1052
S'http_host'
p1053
asbag49
(g70
g51
NtRp1054
(dp1055
g54
(dp1056
g81
g82
ssg63
g1045
sg56
(lp1057
S':'
asbag49
(g70
g51
NtRp1058
(dp1059
g54
(dp1060
sg63
g1045
sg56
(lp1061
g49
(g50
g51
NtRp1062
(dp1063
g54
(dp1064
g62
I4
ssg63
g1058
sg56
(lp1065
S'127.0.0.1:8000'
p1066
asbasbasbag49
(g65
g51
NtRp1067
(dp1068
g54
(dp1069
sg63
g753
sg56
(lp1070
g49
(g70
g51
NtRp1071
(dp1072
g54
(dp1073
g74
g75
ssg63
g1067
sg56
(lp1074
S'http_keep_alive'
p1075
asbag49
(g70
g51
NtRp1076
(dp1077
g54
(dp1078
g81
g82
ssg63
g1067
sg56
(lp1079
S':'
asbag49
(g70
g51
NtRp1080
(dp1081
g54
(dp1082
sg63
g1067
sg56
(lp1083
g49
(g50
g51
NtRp1084
(dp1085
g54
(dp1086
g62
I4
ssg63
g1080
sg56
(lp1087
S'115'
p1088
asbasbasbag49
(g65
g51
NtRp1089
(dp1090
g54
(dp1091
sg63
g753
sg56
(lp1092
g49
(g70
g51
NtRp1093
(dp1094
g54
(dp1095
g74
g75
ssg63
g1089
sg56
(lp1096
S'http_referer'
p1097
asbag49
(g70
g51
NtRp1098
(dp1099
g54
(dp1100
g81
g82
ssg63
g1089
sg56
(lp1101
S':'
asbag49
(g70
g51
NtRp1102
(dp1103
g54
(dp1104
sg63
g1089
sg56
(lp1105
g49
(g50
g51
NtRp1106
(dp1107
g54
(dp1108
g62
I4
ssg63
g1102
sg56
(lp1109
S'http://127.0.0.1:8000/ASA/default/generate?id_prac=1'
p1110
asbasbasbag49
(g65
g51
NtRp1111
(dp1112
g54
(dp1113
sg63
g753
sg56
(lp1114
g49
(g70
g51
NtRp1115
(dp1116
g54
(dp1117
g74
g75
ssg63
g1111
sg56
(lp1118
S'http_user_agent'
p1119
asbag49
(g70
g51
NtRp1120
(dp1121
g54
(dp1122
g81
g82
ssg63
g1111
sg56
(lp1123
S':'
asbag49
(g70
g51
NtRp1124
(dp1125
g54
(dp1126
sg63
g1111
sg56
(lp1127
g49
(g50
g51
NtRp1128
(dp1129
g54
(dp1130
g62
I4
ssg63
g1124
sg56
(lp1131
S'Mozilla/5.0 (Windows; U; Windows NT 6.1; pl; rv:1.9.2.25) Gecko/20111212 Firefox/3.6.25'
p1132
asbasbasbag49
(g65
g51
NtRp1133
(dp1134
g54
(dp1135
sg63
g753
sg56
(lp1136
g49
(g70
g51
NtRp1137
(dp1138
g54
(dp1139
g74
g75
ssg63
g1133
sg56
(lp1140
S'is_jython'
p1141
asbag49
(g70
g51
NtRp1142
(dp1143
g54
(dp1144
g81
g82
ssg63
g1133
sg56
(lp1145
S':'
asbag49
(g70
g51
NtRp1146
(dp1147
g54
(dp1148
sg63
g1133
sg56
(lp1149
g49
(g50
g51
NtRp1150
(dp1151
g54
(dp1152
g62
I4
ssg63
g1146
sg56
(lp1153
g92
asbasbasbag49
(g65
g51
NtRp1154
(dp1155
g54
(dp1156
sg63
g753
sg56
(lp1157
g49
(g70
g51
NtRp1158
(dp1159
g54
(dp1160
g74
g75
ssg63
g1154
sg56
(lp1161
S'is_pypy'
p1162
asbag49
(g70
g51
NtRp1163
(dp1164
g54
(dp1165
g81
g82
ssg63
g1154
sg56
(lp1166
S':'
asbag49
(g70
g51
NtRp1167
(dp1168
g54
(dp1169
sg63
g1154
sg56
(lp1170
g49
(g50
g51
NtRp1171
(dp1172
g54
(dp1173
g62
I4
ssg63
g1167
sg56
(lp1174
g92
asbasbasbag49
(g65
g51
NtRp1175
(dp1176
g54
(dp1177
sg63
g753
sg56
(lp1178
g49
(g70
g51
NtRp1179
(dp1180
g54
(dp1181
g74
g75
ssg63
g1175
sg56
(lp1182
S'path_info'
p1183
asbag49
(g70
g51
NtRp1184
(dp1185
g54
(dp1186
g81
g82
ssg63
g1175
sg56
(lp1187
S':'
asbag49
(g70
g51
NtRp1188
(dp1189
g54
(dp1190
sg63
g1175
sg56
(lp1191
g49
(g50
g51
NtRp1192
(dp1193
g54
(dp1194
g62
I4
ssg63
g1188
sg56
(lp1195
S'/ASA/default/add_points'
p1196
asbasbasbag49
(g65
g51
NtRp1197
(dp1198
g54
(dp1199
sg63
g753
sg56
(lp1200
g49
(g70
g51
NtRp1201
(dp1202
g54
(dp1203
g74
g75
ssg63
g1197
sg56
(lp1204
S'query_string'
p1205
asbag49
(g70
g51
NtRp1206
(dp1207
g54
(dp1208
g81
g82
ssg63
g1197
sg56
(lp1209
S':'
asbag49
(g70
g51
NtRp1210
(dp1211
g54
(dp1212
sg63
g1197
sg56
(lp1213
g49
(g50
g51
NtRp1214
(dp1215
g54
(dp1216
g62
I4
ssg63
g1210
sg56
(lp1217
S'id_prac=1?n?52.21725195742564?21.015468120313017?52.217988152682494?21.015468120313017?52.21914500628888?21.015725612378446?52.220038917982585?21.016068935132353?52.221143136998776?21.016240596509306?52.2220895885891?21.016240596509306?52.22324633536226?21.01563978168997?52.22287828283923?21.014008998608915?52.222720545109794?21.012464046216337?52.22266796574214?21.01160573933157?52.22287828283923?21.009545802808134'
p1218
asbasbasbag49
(g65
g51
NtRp1219
(dp1220
g54
(dp1221
sg63
g753
sg56
(lp1222
g49
(g70
g51
NtRp1223
(dp1224
g54
(dp1225
g74
g75
ssg63
g1219
sg56
(lp1226
S'remote_addr'
p1227
asbag49
(g70
g51
NtRp1228
(dp1229
g54
(dp1230
g81
g82
ssg63
g1219
sg56
(lp1231
S':'
asbag49
(g70
g51
NtRp1232
(dp1233
g54
(dp1234
sg63
g1219
sg56
(lp1235
g49
(g50
g51
NtRp1236
(dp1237
g54
(dp1238
g62
I4
ssg63
g1232
sg56
(lp1239
g182
asbasbasbag49
(g65
g51
NtRp1240
(dp1241
g54
(dp1242
sg63
g753
sg56
(lp1243
g49
(g70
g51
NtRp1244
(dp1245
g54
(dp1246
g74
g75
ssg63
g1240
sg56
(lp1247
S'remote_port'
p1248
asbag49
(g70
g51
NtRp1249
(dp1250
g54
(dp1251
g81
g82
ssg63
g1240
sg56
(lp1252
S':'
asbag49
(g70
g51
NtRp1253
(dp1254
g54
(dp1255
sg63
g1240
sg56
(lp1256
g49
(g50
g51
NtRp1257
(dp1258
g54
(dp1259
g62
I4
ssg63
g1253
sg56
(lp1260
S'49504'
p1261
asbasbasbag49
(g65
g51
NtRp1262
(dp1263
g54
(dp1264
sg63
g753
sg56
(lp1265
g49
(g70
g51
NtRp1266
(dp1267
g54
(dp1268
g74
g75
ssg63
g1262
sg56
(lp1269
S'request_method'
p1270
asbag49
(g70
g51
NtRp1271
(dp1272
g54
(dp1273
g81
g82
ssg63
g1262
sg56
(lp1274
S':'
asbag49
(g70
g51
NtRp1275
(dp1276
g54
(dp1277
sg63
g1262
sg56
(lp1278
g49
(g50
g51
NtRp1279
(dp1280
g54
(dp1281
g62
I4
ssg63
g1275
sg56
(lp1282
S'GET'
p1283
asbasbasbag49
(g65
g51
NtRp1284
(dp1285
g54
(dp1286
sg63
g753
sg56
(lp1287
g49
(g70
g51
NtRp1288
(dp1289
g54
(dp1290
g74
g75
ssg63
g1284
sg56
(lp1291
S'script_name'
p1292
asbag49
(g70
g51
NtRp1293
(dp1294
g54
(dp1295
g81
g82
ssg63
g1284
sg56
(lp1296
S':'
asbag49
(g70
g51
NtRp1297
(dp1298
g54
(dp1299
sg63
g1284
sg56
(lp1300
g49
(g50
g51
NtRp1301
(dp1302
g54
(dp1303
g62
I4
ssg63
g1297
sg56
(lp1304
S''
asbasbasbag49
(g65
g51
NtRp1305
(dp1306
g54
(dp1307
sg63
g753
sg56
(lp1308
g49
(g70
g51
NtRp1309
(dp1310
g54
(dp1311
g74
g75
ssg63
g1305
sg56
(lp1312
S'server_name'
p1313
asbag49
(g70
g51
NtRp1314
(dp1315
g54
(dp1316
g81
g82
ssg63
g1305
sg56
(lp1317
S':'
asbag49
(g70
g51
NtRp1318
(dp1319
g54
(dp1320
sg63
g1305
sg56
(lp1321
g49
(g50
g51
NtRp1322
(dp1323
g54
(dp1324
g62
I4
ssg63
g1318
sg56
(lp1325
S'hyden-PC'
p1326
asbasbasbag49
(g65
g51
NtRp1327
(dp1328
g54
(dp1329
sg63
g753
sg56
(lp1330
g49
(g70
g51
NtRp1331
(dp1332
g54
(dp1333
g74
g75
ssg63
g1327
sg56
(lp1334
S'server_port'
p1335
asbag49
(g70
g51
NtRp1336
(dp1337
g54
(dp1338
g81
g82
ssg63
g1327
sg56
(lp1339
S':'
asbag49
(g70
g51
NtRp1340
(dp1341
g54
(dp1342
sg63
g1327
sg56
(lp1343
g49
(g50
g51
NtRp1344
(dp1345
g54
(dp1346
g62
I4
ssg63
g1340
sg56
(lp1347
S'8000'
p1348
asbasbasbag49
(g65
g51
NtRp1349
(dp1350
g54
(dp1351
sg63
g753
sg56
(lp1352
g49
(g70
g51
NtRp1353
(dp1354
g54
(dp1355
g74
g75
ssg63
g1349
sg56
(lp1356
S'server_protocol'
p1357
asbag49
(g70
g51
NtRp1358
(dp1359
g54
(dp1360
g81
g82
ssg63
g1349
sg56
(lp1361
S':'
asbag49
(g70
g51
NtRp1362
(dp1363
g54
(dp1364
sg63
g1349
sg56
(lp1365
g49
(g50
g51
NtRp1366
(dp1367
g54
(dp1368
g62
I4
ssg63
g1362
sg56
(lp1369
S'HTTP/1.1'
p1370
asbasbasbag49
(g65
g51
NtRp1371
(dp1372
g54
(dp1373
sg63
g753
sg56
(lp1374
g49
(g70
g51
NtRp1375
(dp1376
g54
(dp1377
g74
g75
ssg63
g1371
sg56
(lp1378
S'server_software'
p1379
asbag49
(g70
g51
NtRp1380
(dp1381
g54
(dp1382
g81
g82
ssg63
g1371
sg56
(lp1383
S':'
asbag49
(g70
g51
NtRp1384
(dp1385
g54
(dp1386
sg63
g1371
sg56
(lp1387
g49
(g50
g51
NtRp1388
(dp1389
g54
(dp1390
g62
I4
ssg63
g1384
sg56
(lp1391
S'Rocket 1.2.4'
p1392
asbasbasbag49
(g65
g51
NtRp1393
(dp1394
g54
(dp1395
sg63
g753
sg56
(lp1396
g49
(g70
g51
NtRp1397
(dp1398
g54
(dp1399
g74
g75
ssg63
g1393
sg56
(lp1400
S'web2py_crontype'
p1401
asbag49
(g70
g51
NtRp1402
(dp1403
g54
(dp1404
g81
g82
ssg63
g1393
sg56
(lp1405
S':'
asbag49
(g70
g51
NtRp1406
(dp1407
g54
(dp1408
sg63
g1393
sg56
(lp1409
g49
(g50
g51
NtRp1410
(dp1411
g54
(dp1412
g62
I4
ssg63
g1406
sg56
(lp1413
S'hard'
p1414
asbasbasbag49
(g65
g51
NtRp1415
(dp1416
g54
(dp1417
sg63
g753
sg56
(lp1418
g49
(g70
g51
NtRp1419
(dp1420
g54
(dp1421
g74
g75
ssg63
g1415
sg56
(lp1422
S'web2py_path'
p1423
asbag49
(g70
g51
NtRp1424
(dp1425
g54
(dp1426
g81
g82
ssg63
g1415
sg56
(lp1427
S':'
asbag49
(g70
g51
NtRp1428
(dp1429
g54
(dp1430
sg63
g1415
sg56
(lp1431
g49
(g50
g51
NtRp1432
(dp1433
g54
(dp1434
g62
I4
ssg63
g1428
sg56
(lp1435
g800
asbasbasbag49
(g65
g51
NtRp1436
(dp1437
g54
(dp1438
sg63
g753
sg56
(lp1439
g49
(g70
g51
NtRp1440
(dp1441
g54
(dp1442
g74
g75
ssg63
g1436
sg56
(lp1443
S'web2py_version'
p1444
asbag49
(g70
g51
NtRp1445
(dp1446
g54
(dp1447
g81
g82
ssg63
g1436
sg56
(lp1448
S':'
asbag49
(g70
g51
NtRp1449
(dp1450
g54
(dp1451
sg63
g1436
sg56
(lp1452
g49
(g50
g51
NtRp1453
(dp1454
g54
(dp1455
g62
I4
ssg63
g1449
sg56
(lp1456
g49
(g58
g51
NtRp1457
(dp1458
g54
(dp1459
g62
I3
ssg63
Nsg56
(lp1460
g49
(g65
g51
NtRp1461
(dp1462
g54
(dp1463
sg63
g1457
sg56
(lp1464
g49
(g70
g51
NtRp1465
(dp1466
g54
(dp1467
sg63
g1461
sg56
(lp1468
g49
(g50
g51
NtRp1469
(dp1470
g54
(dp1471
g62
I3
ssg63
g1465
sg56
(lp1472
S'1'
asbasbasbag49
(g65
g51
NtRp1473
(dp1474
g54
(dp1475
sg63
g1457
sg56
(lp1476
g49
(g70
g51
NtRp1477
(dp1478
g54
(dp1479
sg63
g1473
sg56
(lp1480
g49
(g50
g51
NtRp1481
(dp1482
g54
(dp1483
g62
I3
ssg63
g1477
sg56
(lp1484
S'99'
p1485
asbasbasbag49
(g65
g51
NtRp1486
(dp1487
g54
(dp1488
sg63
g1457
sg56
(lp1489
g49
(g70
g51
NtRp1490
(dp1491
g54
(dp1492
sg63
g1486
sg56
(lp1493
g49
(g50
g51
NtRp1494
(dp1495
g54
(dp1496
g62
I3
ssg63
g1490
sg56
(lp1497
S'4'
asbasbasbag49
(g65
g51
NtRp1498
(dp1499
g54
(dp1500
sg63
g1457
sg56
(lp1501
g49
(g70
g51
NtRp1502
(dp1503
g54
(dp1504
sg63
g1498
sg56
(lp1505
g49
(g50
g51
NtRp1506
(dp1507
g54
(dp1508
g62
I3
ssg63
g1502
sg56
(lp1509
S'datetime.datetime(2011, 12, 14, 14, 46, 14)'
p1510
asbasbasbag49
(g65
g51
NtRp1511
(dp1512
g54
(dp1513
sg63
g1457
sg56
(lp1514
g49
(g70
g51
NtRp1515
(dp1516
g54
(dp1517
sg63
g1511
sg56
(lp1518
g49
(g50
g51
NtRp1519
(dp1520
g54
(dp1521
g62
I3
ssg63
g1515
sg56
(lp1522
S'stable'
p1523
asbasbasbasbasbasbasbag49
(g65
g51
NtRp1524
(dp1525
g54
(dp1526
sg63
g753
sg56
(lp1527
g49
(g70
g51
NtRp1528
(dp1529
g54
(dp1530
g74
g75
ssg63
g1524
sg56
(lp1531
S'wsgi_errors'
p1532
asbag49
(g70
g51
NtRp1533
(dp1534
g54
(dp1535
g81
g82
ssg63
g1524
sg56
(lp1536
S':'
asbag49
(g70
g51
NtRp1537
(dp1538
g54
(dp1539
sg63
g1524
sg56
(lp1540
g49
(g50
g51
NtRp1541
(dp1542
g54
(dp1543
g62
I4
ssg63
g1537
sg56
(lp1544
S"<open file '<stderr>', mode 'w' at 0x002C00B0>"
p1545
asbasbasbag49
(g65
g51
NtRp1546
(dp1547
g54
(dp1548
sg63
g753
sg56
(lp1549
g49
(g70
g51
NtRp1550
(dp1551
g54
(dp1552
g74
g75
ssg63
g1546
sg56
(lp1553
S'wsgi_file_wrapper'
p1554
asbag49
(g70
g51
NtRp1555
(dp1556
g54
(dp1557
g81
g82
ssg63
g1546
sg56
(lp1558
S':'
asbag49
(g70
g51
NtRp1559
(dp1560
g54
(dp1561
sg63
g1546
sg56
(lp1562
g49
(g50
g51
NtRp1563
(dp1564
g54
(dp1565
g62
I4
ssg63
g1559
sg56
(lp1566
S'<class wsgiref.util.FileWrapper at 0x0210FCF0>'
p1567
asbasbasbag49
(g65
g51
NtRp1568
(dp1569
g54
(dp1570
sg63
g753
sg56
(lp1571
g49
(g70
g51
NtRp1572
(dp1573
g54
(dp1574
g74
g75
ssg63
g1568
sg56
(lp1575
S'wsgi_input'
p1576
asbag49
(g70
g51
NtRp1577
(dp1578
g54
(dp1579
g81
g82
ssg63
g1568
sg56
(lp1580
S':'
asbag49
(g70
g51
NtRp1581
(dp1582
g54
(dp1583
sg63
g1568
sg56
(lp1584
g49
(g50
g51
NtRp1585
(dp1586
g54
(dp1587
g62
I4
ssg63
g1581
sg56
(lp1588
S'<socket._fileobject object at 0x05E521F0>'
p1589
asbasbasbag49
(g65
g51
NtRp1590
(dp1591
g54
(dp1592
sg63
g753
sg56
(lp1593
g49
(g70
g51
NtRp1594
(dp1595
g54
(dp1596
g74
g75
ssg63
g1590
sg56
(lp1597
S'wsgi_multiprocess'
p1598
asbag49
(g70
g51
NtRp1599
(dp1600
g54
(dp1601
g81
g82
ssg63
g1590
sg56
(lp1602
S':'
asbag49
(g70
g51
NtRp1603
(dp1604
g54
(dp1605
sg63
g1590
sg56
(lp1606
g49
(g50
g51
NtRp1607
(dp1608
g54
(dp1609
g62
I4
ssg63
g1603
sg56
(lp1610
g92
asbasbasbag49
(g65
g51
NtRp1611
(dp1612
g54
(dp1613
sg63
g753
sg56
(lp1614
g49
(g70
g51
NtRp1615
(dp1616
g54
(dp1617
g74
g75
ssg63
g1611
sg56
(lp1618
S'wsgi_multithread'
p1619
asbag49
(g70
g51
NtRp1620
(dp1621
g54
(dp1622
g81
g82
ssg63
g1611
sg56
(lp1623
S':'
asbag49
(g70
g51
NtRp1624
(dp1625
g54
(dp1626
sg63
g1611
sg56
(lp1627
g49
(g50
g51
NtRp1628
(dp1629
g54
(dp1630
g62
I4
ssg63
g1624
sg56
(lp1631
S'True'
p1632
asbasbasbag49
(g65
g51
NtRp1633
(dp1634
g54
(dp1635
sg63
g753
sg56
(lp1636
g49
(g70
g51
NtRp1637
(dp1638
g54
(dp1639
g74
g75
ssg63
g1633
sg56
(lp1640
S'wsgi_run_once'
p1641
asbag49
(g70
g51
NtRp1642
(dp1643
g54
(dp1644
g81
g82
ssg63
g1633
sg56
(lp1645
S':'
asbag49
(g70
g51
NtRp1646
(dp1647
g54
(dp1648
sg63
g1633
sg56
(lp1649
g49
(g50
g51
NtRp1650
(dp1651
g54
(dp1652
g62
I4
ssg63
g1646
sg56
(lp1653
g92
asbasbasbag49
(g65
g51
NtRp1654
(dp1655
g54
(dp1656
sg63
g753
sg56
(lp1657
g49
(g70
g51
NtRp1658
(dp1659
g54
(dp1660
g74
g75
ssg63
g1654
sg56
(lp1661
S'wsgi_url_scheme'
p1662
asbag49
(g70
g51
NtRp1663
(dp1664
g54
(dp1665
g81
g82
ssg63
g1654
sg56
(lp1666
S':'
asbag49
(g70
g51
NtRp1667
(dp1668
g54
(dp1669
sg63
g1654
sg56
(lp1670
g49
(g50
g51
NtRp1671
(dp1672
g54
(dp1673
g62
I4
ssg63
g1667
sg56
(lp1674
S'http'
p1675
asbasbasbag49
(g65
g51
NtRp1676
(dp1677
g54
(dp1678
sg63
g753
sg56
(lp1679
g49
(g70
g51
NtRp1680
(dp1681
g54
(dp1682
g74
g75
ssg63
g1676
sg56
(lp1683
S'wsgi_version'
p1684
asbag49
(g70
g51
NtRp1685
(dp1686
g54
(dp1687
g81
g82
ssg63
g1676
sg56
(lp1688
S':'
asbag49
(g70
g51
NtRp1689
(dp1690
g54
(dp1691
sg63
g1676
sg56
(lp1692
g49
(g50
g51
NtRp1693
(dp1694
g54
(dp1695
g62
I4
ssg63
g1689
sg56
(lp1696
g49
(g58
g51
NtRp1697
(dp1698
g54
(dp1699
g62
I3
ssg63
Nsg56
(lp1700
g49
(g65
g51
NtRp1701
(dp1702
g54
(dp1703
sg63
g1697
sg56
(lp1704
g49
(g70
g51
NtRp1705
(dp1706
g54
(dp1707
sg63
g1701
sg56
(lp1708
g49
(g50
g51
NtRp1709
(dp1710
g54
(dp1711
g62
I3
ssg63
g1705
sg56
(lp1712
S'1'
asbasbasbag49
(g65
g51
NtRp1713
(dp1714
g54
(dp1715
sg63
g1697
sg56
(lp1716
g49
(g70
g51
NtRp1717
(dp1718
g54
(dp1719
sg63
g1713
sg56
(lp1720
g49
(g50
g51
NtRp1721
(dp1722
g54
(dp1723
g62
I3
ssg63
g1717
sg56
(lp1724
S'0'
asbasbasbasbasbasbasbasbasbasbasbag49
(g65
g51
NtRp1725
(dp1726
g54
(dp1727
sg63
g59
sg56
(lp1728
g49
(g70
g51
NtRp1729
(dp1730
g54
(dp1731
g74
g75
ssg63
g1725
sg56
(lp1732
S'extension'
p1733
asbag49
(g70
g51
NtRp1734
(dp1735
g54
(dp1736
g81
g82
ssg63
g1725
sg56
(lp1737
S':'
asbag49
(g70
g51
NtRp1738
(dp1739
g54
(dp1740
sg63
g1725
sg56
(lp1741
g49
(g50
g51
NtRp1742
(dp1743
g54
(dp1744
g62
I5
ssg63
g1738
sg56
(lp1745
S'html'
p1746
asbasbasbag49
(g65
g51
NtRp1747
(dp1748
g54
(dp1749
sg63
g59
sg56
(lp1750
g49
(g70
g51
NtRp1751
(dp1752
g54
(dp1753
g74
g75
ssg63
g1747
sg56
(lp1754
S'folder'
p1755
asbag49
(g70
g51
NtRp1756
(dp1757
g54
(dp1758
g81
g82
ssg63
g1747
sg56
(lp1759
S':'
asbag49
(g70
g51
NtRp1760
(dp1761
g54
(dp1762
sg63
g1747
sg56
(lp1763
g49
(g50
g51
NtRp1764
(dp1765
g54
(dp1766
g62
I5
ssg63
g1760
sg56
(lp1767
S'D:\\UCZELNIA\\ELKA\\tin\\web2py\\web2py_win\\web2py\\applications\\ASA\\'
p1768
asbasbasbag49
(g65
g51
NtRp1769
(dp1770
g54
(dp1771
sg63
g59
sg56
(lp1772
g49
(g70
g51
NtRp1773
(dp1774
g54
(dp1775
g74
g75
ssg63
g1769
sg56
(lp1776
S'function'
p1777
asbag49
(g70
g51
NtRp1778
(dp1779
g54
(dp1780
g81
g82
ssg63
g1769
sg56
(lp1781
S':'
asbag49
(g70
g51
NtRp1782
(dp1783
g54
(dp1784
sg63
g1769
sg56
(lp1785
g49
(g50
g51
NtRp1786
(dp1787
g54
(dp1788
g62
I5
ssg63
g1782
sg56
(lp1789
S'add_points'
p1790
asbasbasbag49
(g65
g51
NtRp1791
(dp1792
g54
(dp1793
sg63
g59
sg56
(lp1794
g49
(g70
g51
NtRp1795
(dp1796
g54
(dp1797
g74
g75
ssg63
g1791
sg56
(lp1798
S'get_vars'
p1799
asbag49
(g70
g51
NtRp1800
(dp1801
g54
(dp1802
g81
g82
ssg63
g1791
sg56
(lp1803
S':'
asbag49
(g70
g51
NtRp1804
(dp1805
g54
(dp1806
sg63
g1791
sg56
(lp1807
g49
(g50
g51
NtRp1808
(dp1809
g54
(dp1810
g62
I5
ssg63
g1804
sg56
(lp1811
g49
(g58
g51
NtRp1812
(dp1813
g54
(dp1814
g62
I4
ssg63
Nsg56
(lp1815
g49
(g65
g51
NtRp1816
(dp1817
g54
(dp1818
sg63
g1812
sg56
(lp1819
g49
(g70
g51
NtRp1820
(dp1821
g54
(dp1822
g74
g75
ssg63
g1816
sg56
(lp1823
S'id_prac'
p1824
asbag49
(g70
g51
NtRp1825
(dp1826
g54
(dp1827
g81
g82
ssg63
g1816
sg56
(lp1828
S':'
asbag49
(g70
g51
NtRp1829
(dp1830
g54
(dp1831
sg63
g1816
sg56
(lp1832
g49
(g50
g51
NtRp1833
(dp1834
g54
(dp1835
g62
I4
ssg63
g1829
sg56
(lp1836
S'1?n?52.21725195742564?21.015468120313017?52.217988152682494?21.015468120313017?52.21914500628888?21.015725612378446?52.220038917982585?21.016068935132353?52.221143136998776?21.016240596509306?52.2220895885891?21.016240596509306?52.22324633536226?21.01563978168997?52.22287828283923?21.014008998608915?52.222720545109794?21.012464046216337?52.22266796574214?21.01160573933157?52.22287828283923?21.009545802808134'
p1837
asbasbasbasbasbasbasbag49
(g65
g51
NtRp1838
(dp1839
g54
(dp1840
sg63
g59
sg56
(lp1841
g49
(g70
g51
NtRp1842
(dp1843
g54
(dp1844
g74
g75
ssg63
g1838
sg56
(lp1845
S'global_settings'
p1846
asbag49
(g70
g51
NtRp1847
(dp1848
g54
(dp1849
g81
g82
ssg63
g1838
sg56
(lp1850
S':'
asbag49
(g70
g51
NtRp1851
(dp1852
g54
(dp1853
sg63
g1838
sg56
(lp1854
g49
(g50
g51
NtRp1855
(dp1856
g54
(dp1857
g62
I5
ssg63
g1851
sg56
(lp1858
g49
(g58
g51
NtRp1859
(dp1860
g54
(dp1861
g62
I4
ssg63
Nsg56
(lp1862
g49
(g65
g51
NtRp1863
(dp1864
g54
(dp1865
sg63
g1859
sg56
(lp1866
g49
(g70
g51
NtRp1867
(dp1868
g54
(dp1869
g74
g75
ssg63
g1863
sg56
(lp1870
g765
asbag49
(g70
g51
NtRp1871
(dp1872
g54
(dp1873
g81
g82
ssg63
g1863
sg56
(lp1874
S':'
asbag49
(g70
g51
NtRp1875
(dp1876
g54
(dp1877
sg63
g1863
sg56
(lp1878
g49
(g50
g51
NtRp1879
(dp1880
g54
(dp1881
g62
I4
ssg63
g1875
sg56
(lp1882
S"set(['D:\\\\UCZELNIA\\\\ELKA\\\\tin\\\\web2py\\\\web2py_win\\\\web2py\\\\applications\\\\welcome\\\\', 'D:\\\\UCZELNIA\\\\ELKA\\\\tin\\\\web2py\\\\web2py_win\\\\web2py\\\\applications\\\\admin\\\\', 'D:\\\\UCZELNIA\\\\ELKA\\\\tin\\\\web2py\\\\web2py_win\\\\web2py\\\\applications\\\\ASA\\\\'])"
p1883
asbasbasbag49
(g65
g51
NtRp1884
(dp1885
g54
(dp1886
sg63
g1859
sg56
(lp1887
g49
(g70
g51
NtRp1888
(dp1889
g54
(dp1890
g74
g75
ssg63
g1884
sg56
(lp1891
g787
asbag49
(g70
g51
NtRp1892
(dp1893
g54
(dp1894
g81
g82
ssg63
g1884
sg56
(lp1895
S':'
asbag49
(g70
g51
NtRp1896
(dp1897
g54
(dp1898
sg63
g1884
sg56
(lp1899
g49
(g50
g51
NtRp1900
(dp1901
g54
(dp1902
g62
I4
ssg63
g1896
sg56
(lp1903
g800
asbasbasbag49
(g65
g51
NtRp1904
(dp1905
g54
(dp1906
sg63
g1859
sg56
(lp1907
g49
(g70
g51
NtRp1908
(dp1909
g54
(dp1910
g74
g75
ssg63
g1904
sg56
(lp1911
g809
asbag49
(g70
g51
NtRp1912
(dp1913
g54
(dp1914
g81
g82
ssg63
g1904
sg56
(lp1915
S':'
asbag49
(g70
g51
NtRp1916
(dp1917
g54
(dp1918
sg63
g1904
sg56
(lp1919
g49
(g50
g51
NtRp1920
(dp1921
g54
(dp1922
g62
I4
ssg63
g1916
sg56
(lp1923
g49
(g58
g51
NtRp1924
(dp1925
g54
(dp1926
g62
I3
ssg63
Nsg56
(lp1927
sbasbasbasbag49
(g65
g51
NtRp1928
(dp1929
g54
(dp1930
sg63
g1859
sg56
(lp1931
g49
(g70
g51
NtRp1932
(dp1933
g54
(dp1934
g74
g75
ssg63
g1928
sg56
(lp1935
g834
asbag49
(g70
g51
NtRp1936
(dp1937
g54
(dp1938
g81
g82
ssg63
g1928
sg56
(lp1939
S':'
asbag49
(g70
g51
NtRp1940
(dp1941
g54
(dp1942
sg63
g1928
sg56
(lp1943
g49
(g50
g51
NtRp1944
(dp1945
g54
(dp1946
g62
I4
ssg63
g1940
sg56
(lp1947
S"<Values at 0x2cfc300: {'verbose': False, 'ip': '127.0.0.1', 'shutdown_timeout': 5, 'taskbar': False, 'nocron': False, 'pid_filename': 'httpserver.pid', 'maxthreads': None, 'softcron': False, 'server_name': 'hyden-PC', 'bpython': False, 'nogui': False, 'port': 8000, 'extcron': False, 'debuglevel': 30, 'test': None, 'folder': 'D:\\\\UCZELNIA\\\\ELKA\\\\tin\\\\web2py\\\\web2py_win\\\\web2py', 'config': '', 'import_models': False, 'winservice': '', 'shell': None, 'run': '', 'log_filename': 'httpserver.log', 'args': [''], 'socket_timeout': 1, 'ssl_ca_certificate': None, 'scheduler': None, 'profiler_filename': None, 'ssl_private_key': '', 'password': '<ask>', 'request_queue_size': 5, 'ssl_certificate': '', 'cronjob': False, 'numthreads': None, 'quiet': False, 'interfaces': None, 'minthreads': None, 'timeout': 10, 'plain': False, 'nobanner': False}>"
p1948
asbasbasbag49
(g65
g51
NtRp1949
(dp1950
g54
(dp1951
sg63
g1859
sg56
(lp1952
g49
(g70
g51
NtRp1953
(dp1954
g54
(dp1955
g74
g75
ssg63
g1949
sg56
(lp1956
g856
asbag49
(g70
g51
NtRp1957
(dp1958
g54
(dp1959
g81
g82
ssg63
g1949
sg56
(lp1960
S':'
asbag49
(g70
g51
NtRp1961
(dp1962
g54
(dp1963
sg63
g1949
sg56
(lp1964
g49
(g50
g51
NtRp1965
(dp1966
g54
(dp1967
g62
I4
ssg63
g1961
sg56
(lp1968
S'set([])'
p1969
asbasbasbag49
(g65
g51
NtRp1970
(dp1971
g54
(dp1972
sg63
g1859
sg56
(lp1973
g49
(g70
g51
NtRp1974
(dp1975
g54
(dp1976
g74
g75
ssg63
g1970
sg56
(lp1977
g878
asbag49
(g70
g51
NtRp1978
(dp1979
g54
(dp1980
g81
g82
ssg63
g1970
sg56
(lp1981
S':'
asbag49
(g70
g51
NtRp1982
(dp1983
g54
(dp1984
sg63
g1970
sg56
(lp1985
g49
(g50
g51
NtRp1986
(dp1987
g54
(dp1988
g62
I4
ssg63
g1982
sg56
(lp1989
g92
asbasbasbag49
(g65
g51
NtRp1990
(dp1991
g54
(dp1992
sg63
g1859
sg56
(lp1993
g49
(g70
g51
NtRp1994
(dp1995
g54
(dp1996
g74
g75
ssg63
g1990
sg56
(lp1997
g899
asbag49
(g70
g51
NtRp1998
(dp1999
g54
(dp2000
g81
g82
ssg63
g1990
sg56
(lp2001
S':'
asbag49
(g70
g51
NtRp2002
(dp2003
g54
(dp2004
sg63
g1990
sg56
(lp2005
g49
(g50
g51
NtRp2006
(dp2007
g54
(dp2008
g62
I4
ssg63
g2002
sg56
(lp2009
g912
asbasbasbag49
(g65
g51
NtRp2010
(dp2011
g54
(dp2012
sg63
g1859
sg56
(lp2013
g49
(g70
g51
NtRp2014
(dp2015
g54
(dp2016
g74
g75
ssg63
g2010
sg56
(lp2017
g1141
asbag49
(g70
g51
NtRp2018
(dp2019
g54
(dp2020
g81
g82
ssg63
g2010
sg56
(lp2021
S':'
asbag49
(g70
g51
NtRp2022
(dp2023
g54
(dp2024
sg63
g2010
sg56
(lp2025
g49
(g50
g51
NtRp2026
(dp2027
g54
(dp2028
g62
I4
ssg63
g2022
sg56
(lp2029
g92
asbasbasbag49
(g65
g51
NtRp2030
(dp2031
g54
(dp2032
sg63
g1859
sg56
(lp2033
g49
(g70
g51
NtRp2034
(dp2035
g54
(dp2036
g74
g75
ssg63
g2030
sg56
(lp2037
g1162
asbag49
(g70
g51
NtRp2038
(dp2039
g54
(dp2040
g81
g82
ssg63
g2030
sg56
(lp2041
S':'
asbag49
(g70
g51
NtRp2042
(dp2043
g54
(dp2044
sg63
g2030
sg56
(lp2045
g49
(g50
g51
NtRp2046
(dp2047
g54
(dp2048
g62
I4
ssg63
g2042
sg56
(lp2049
g92
asbasbasbag49
(g65
g51
NtRp2050
(dp2051
g54
(dp2052
sg63
g1859
sg56
(lp2053
g49
(g70
g51
NtRp2054
(dp2055
g54
(dp2056
g74
g75
ssg63
g2050
sg56
(lp2057
g1401
asbag49
(g70
g51
NtRp2058
(dp2059
g54
(dp2060
g81
g82
ssg63
g2050
sg56
(lp2061
S':'
asbag49
(g70
g51
NtRp2062
(dp2063
g54
(dp2064
sg63
g2050
sg56
(lp2065
g49
(g50
g51
NtRp2066
(dp2067
g54
(dp2068
g62
I4
ssg63
g2062
sg56
(lp2069
g1414
asbasbasbag49
(g65
g51
NtRp2070
(dp2071
g54
(dp2072
sg63
g1859
sg56
(lp2073
g49
(g70
g51
NtRp2074
(dp2075
g54
(dp2076
g74
g75
ssg63
g2070
sg56
(lp2077
g1444
asbag49
(g70
g51
NtRp2078
(dp2079
g54
(dp2080
g81
g82
ssg63
g2070
sg56
(lp2081
S':'
asbag49
(g70
g51
NtRp2082
(dp2083
g54
(dp2084
sg63
g2070
sg56
(lp2085
g49
(g50
g51
NtRp2086
(dp2087
g54
(dp2088
g62
I4
ssg63
g2082
sg56
(lp2089
g49
(g58
g51
NtRp2090
(dp2091
g54
(dp2092
g62
I3
ssg63
Nsg56
(lp2093
g49
(g65
g51
NtRp2094
(dp2095
g54
(dp2096
sg63
g2090
sg56
(lp2097
g49
(g70
g51
NtRp2098
(dp2099
g54
(dp2100
sg63
g2094
sg56
(lp2101
g49
(g50
g51
NtRp2102
(dp2103
g54
(dp2104
g62
I3
ssg63
g2098
sg56
(lp2105
S'1'
asbasbasbag49
(g65
g51
NtRp2106
(dp2107
g54
(dp2108
sg63
g2090
sg56
(lp2109
g49
(g70
g51
NtRp2110
(dp2111
g54
(dp2112
sg63
g2106
sg56
(lp2113
g49
(g50
g51
NtRp2114
(dp2115
g54
(dp2116
g62
I3
ssg63
g2110
sg56
(lp2117
S'99'
p2118
asbasbasbag49
(g65
g51
NtRp2119
(dp2120
g54
(dp2121
sg63
g2090
sg56
(lp2122
g49
(g70
g51
NtRp2123
(dp2124
g54
(dp2125
sg63
g2119
sg56
(lp2126
g49
(g50
g51
NtRp2127
(dp2128
g54
(dp2129
g62
I3
ssg63
g2123
sg56
(lp2130
S'4'
asbasbasbag49
(g65
g51
NtRp2131
(dp2132
g54
(dp2133
sg63
g2090
sg56
(lp2134
g49
(g70
g51
NtRp2135
(dp2136
g54
(dp2137
sg63
g2131
sg56
(lp2138
g49
(g50
g51
NtRp2139
(dp2140
g54
(dp2141
g62
I3
ssg63
g2135
sg56
(lp2142
S'datetime.datetime(2011, 12, 14, 14, 46, 14)'
p2143
asbasbasbag49
(g65
g51
NtRp2144
(dp2145
g54
(dp2146
sg63
g2090
sg56
(lp2147
g49
(g70
g51
NtRp2148
(dp2149
g54
(dp2150
sg63
g2144
sg56
(lp2151
g49
(g50
g51
NtRp2152
(dp2153
g54
(dp2154
g62
I3
ssg63
g2148
sg56
(lp2155
g1523
asbasbasbasbasbasbasbasbasbasbasbag49
(g65
g51
NtRp2156
(dp2157
g54
(dp2158
sg63
g59
sg56
(lp2159
g49
(g70
g51
NtRp2160
(dp2161
g54
(dp2162
g74
g75
ssg63
g2156
sg56
(lp2163
S'is_https'
p2164
asbag49
(g70
g51
NtRp2165
(dp2166
g54
(dp2167
g81
g82
ssg63
g2156
sg56
(lp2168
S':'
asbag49
(g70
g51
NtRp2169
(dp2170
g54
(dp2171
sg63
g2156
sg56
(lp2172
g49
(g50
g51
NtRp2173
(dp2174
g54
(dp2175
g62
I5
ssg63
g2169
sg56
(lp2176
g92
asbasbasbag49
(g65
g51
NtRp2177
(dp2178
g54
(dp2179
sg63
g59
sg56
(lp2180
g49
(g70
g51
NtRp2181
(dp2182
g54
(dp2183
g74
g75
ssg63
g2177
sg56
(lp2184
S'is_local'
p2185
asbag49
(g70
g51
NtRp2186
(dp2187
g54
(dp2188
g81
g82
ssg63
g2177
sg56
(lp2189
S':'
asbag49
(g70
g51
NtRp2190
(dp2191
g54
(dp2192
sg63
g2177
sg56
(lp2193
g49
(g50
g51
NtRp2194
(dp2195
g54
(dp2196
g62
I5
ssg63
g2190
sg56
(lp2197
g1632
asbasbasbag49
(g65
g51
NtRp2198
(dp2199
g54
(dp2200
sg63
g59
sg56
(lp2201
g49
(g70
g51
NtRp2202
(dp2203
g54
(dp2204
g74
g75
ssg63
g2198
sg56
(lp2205
S'is_restful'
p2206
asbag49
(g70
g51
NtRp2207
(dp2208
g54
(dp2209
g81
g82
ssg63
g2198
sg56
(lp2210
S':'
asbag49
(g70
g51
NtRp2211
(dp2212
g54
(dp2213
sg63
g2198
sg56
(lp2214
g49
(g50
g51
NtRp2215
(dp2216
g54
(dp2217
g62
I5
ssg63
g2211
sg56
(lp2218
g92
asbasbasbag49
(g65
g51
NtRp2219
(dp2220
g54
(dp2221
sg63
g59
sg56
(lp2222
g49
(g70
g51
NtRp2223
(dp2224
g54
(dp2225
g74
g75
ssg63
g2219
sg56
(lp2226
S'now'
p2227
asbag49
(g70
g51
NtRp2228
(dp2229
g54
(dp2230
g81
g82
ssg63
g2219
sg56
(lp2231
S':'
asbag49
(g70
g51
NtRp2232
(dp2233
g54
(dp2234
sg63
g2219
sg56
(lp2235
g49
(g50
g51
NtRp2236
(dp2237
g54
(dp2238
g62
I5
ssg63
g2232
sg56
(lp2239
S'datetime.datetime(2012, 1, 9, 17, 41, 41, 720000)'
p2240
asbasbasbag49
(g65
g51
NtRp2241
(dp2242
g54
(dp2243
sg63
g59
sg56
(lp2244
g49
(g70
g51
NtRp2245
(dp2246
g54
(dp2247
g74
g75
ssg63
g2241
sg56
(lp2248
S'post_vars'
p2249
asbag49
(g70
g51
NtRp2250
(dp2251
g54
(dp2252
g81
g82
ssg63
g2241
sg56
(lp2253
S':'
asbag49
(g70
g51
NtRp2254
(dp2255
g54
(dp2256
sg63
g2241
sg56
(lp2257
g49
(g50
g51
NtRp2258
(dp2259
g54
(dp2260
g62
I5
ssg63
g2254
sg56
(lp2261
g49
(g58
g51
NtRp2262
(dp2263
g54
(dp2264
g62
I4
ssg63
Nsg56
(lp2265
sbasbasbasbag49
(g65
g51
NtRp2266
(dp2267
g54
(dp2268
sg63
g59
sg56
(lp2269
g49
(g70
g51
NtRp2270
(dp2271
g54
(dp2272
g74
g75
ssg63
g2266
sg56
(lp2273
S'url'
p2274
asbag49
(g70
g51
NtRp2275
(dp2276
g54
(dp2277
g81
g82
ssg63
g2266
sg56
(lp2278
S':'
asbag49
(g70
g51
NtRp2279
(dp2280
g54
(dp2281
sg63
g2266
sg56
(lp2282
g49
(g50
g51
NtRp2283
(dp2284
g54
(dp2285
g62
I5
ssg63
g2279
sg56
(lp2286
S'/ASA/default/add_points'
p2287
asbasbasbag49
(g65
g51
NtRp2288
(dp2289
g54
(dp2290
sg63
g59
sg56
(lp2291
g49
(g70
g51
NtRp2292
(dp2293
g54
(dp2294
g74
g75
ssg63
g2288
sg56
(lp2295
S'utcnow'
p2296
asbag49
(g70
g51
NtRp2297
(dp2298
g54
(dp2299
g81
g82
ssg63
g2288
sg56
(lp2300
S':'
asbag49
(g70
g51
NtRp2301
(dp2302
g54
(dp2303
sg63
g2288
sg56
(lp2304
g49
(g50
g51
NtRp2305
(dp2306
g54
(dp2307
g62
I5
ssg63
g2301
sg56
(lp2308
S'datetime.datetime(2012, 1, 9, 16, 41, 41, 720000)'
p2309
asbasbasbag49
(g65
g51
NtRp2310
(dp2311
g54
(dp2312
sg63
g59
sg56
(lp2313
g49
(g70
g51
NtRp2314
(dp2315
g54
(dp2316
g74
g75
ssg63
g2310
sg56
(lp2317
S'uuid'
p2318
asbag49
(g70
g51
NtRp2319
(dp2320
g54
(dp2321
g81
g82
ssg63
g2310
sg56
(lp2322
S':'
asbag49
(g70
g51
NtRp2323
(dp2324
g54
(dp2325
sg63
g2310
sg56
(lp2326
g49
(g50
g51
NtRp2327
(dp2328
g54
(dp2329
g62
I5
ssg63
g2323
sg56
(lp2330
S'ASA/127.0.0.1.2012-01-09.17-41-41.a2bbe990-6b2c-460f-99c1-119d71edf425'
p2331
asbasbasbag49
(g65
g51
NtRp2332
(dp2333
g54
(dp2334
sg63
g59
sg56
(lp2335
g49
(g70
g51
NtRp2336
(dp2337
g54
(dp2338
g74
g75
ssg63
g2332
sg56
(lp2339
S'vars'
p2340
asbag49
(g70
g51
NtRp2341
(dp2342
g54
(dp2343
g81
g82
ssg63
g2332
sg56
(lp2344
S':'
asbag49
(g70
g51
NtRp2345
(dp2346
g54
(dp2347
sg63
g2332
sg56
(lp2348
g49
(g50
g51
NtRp2349
(dp2350
g54
(dp2351
g62
I5
ssg63
g2345
sg56
(lp2352
g49
(g58
g51
NtRp2353
(dp2354
g54
(dp2355
g62
I4
ssg63
Nsg56
(lp2356
g49
(g65
g51
NtRp2357
(dp2358
g54
(dp2359
sg63
g2353
sg56
(lp2360
g49
(g70
g51
NtRp2361
(dp2362
g54
(dp2363
g74
g75
ssg63
g2357
sg56
(lp2364
g1824
asbag49
(g70
g51
NtRp2365
(dp2366
g54
(dp2367
g81
g82
ssg63
g2357
sg56
(lp2368
S':'
asbag49
(g70
g51
NtRp2369
(dp2370
g54
(dp2371
sg63
g2357
sg56
(lp2372
g49
(g50
g51
NtRp2373
(dp2374
g54
(dp2375
g62
I4
ssg63
g2369
sg56
(lp2376
g1837
asbasbasbasbasbasbasbag49
(g65
g51
NtRp2377
(dp2378
g54
(dp2379
sg63
g59
sg56
(lp2380
g49
(g70
g51
NtRp2381
(dp2382
g54
(dp2383
g74
g75
ssg63
g2377
sg56
(lp2384
S'wsgi'
p2385
asbag49
(g70
g51
NtRp2386
(dp2387
g54
(dp2388
g81
g82
ssg63
g2377
sg56
(lp2389
S':'
asbag49
(g70
g51
NtRp2390
(dp2391
g54
(dp2392
sg63
g2377
sg56
(lp2393
g49
(g50
g51
NtRp2394
(dp2395
g54
(dp2396
g62
I5
ssg63
g2390
sg56
(lp2397
g49
(g58
g51
NtRp2398
(dp2399
g54
(dp2400
g62
I4
ssg63
Nsg56
(lp2401
g49
(g65
g51
NtRp2402
(dp2403
g54
(dp2404
sg63
g2398
sg56
(lp2405
g49
(g70
g51
NtRp2406
(dp2407
g54
(dp2408
g74
g75
ssg63
g2402
sg56
(lp2409
S'environ'
p2410
asbag49
(g70
g51
NtRp2411
(dp2412
g54
(dp2413
g81
g82
ssg63
g2402
sg56
(lp2414
S':'
asbag49
(g70
g51
NtRp2415
(dp2416
g54
(dp2417
sg63
g2402
sg56
(lp2418
g49
(g50
g51
NtRp2419
(dp2420
g54
(dp2421
g62
I4
ssg63
g2415
sg56
(lp2422
g49
(g58
g51
NtRp2423
(dp2424
g54
(dp2425
g62
I3
ssg63
Nsg56
(lp2426
g49
(g65
g51
NtRp2427
(dp2428
g54
(dp2429
sg63
g2423
sg56
(lp2430
g49
(g70
g51
NtRp2431
(dp2432
g54
(dp2433
g74
g75
ssg63
g2427
sg56
(lp2434
S'HTTP_ACCEPT'
p2435
asbag49
(g70
g51
NtRp2436
(dp2437
g54
(dp2438
g81
g82
ssg63
g2427
sg56
(lp2439
S':'
asbag49
(g70
g51
NtRp2440
(dp2441
g54
(dp2442
sg63
g2427
sg56
(lp2443
g49
(g50
g51
NtRp2444
(dp2445
g54
(dp2446
g62
I3
ssg63
g2440
sg56
(lp2447
g934
asbasbasbag49
(g65
g51
NtRp2448
(dp2449
g54
(dp2450
sg63
g2423
sg56
(lp2451
g49
(g70
g51
NtRp2452
(dp2453
g54
(dp2454
g74
g75
ssg63
g2448
sg56
(lp2455
S'HTTP_ACCEPT_CHARSET'
p2456
asbag49
(g70
g51
NtRp2457
(dp2458
g54
(dp2459
g81
g82
ssg63
g2448
sg56
(lp2460
S':'
asbag49
(g70
g51
NtRp2461
(dp2462
g54
(dp2463
sg63
g2448
sg56
(lp2464
g49
(g50
g51
NtRp2465
(dp2466
g54
(dp2467
g62
I3
ssg63
g2461
sg56
(lp2468
g956
asbasbasbag49
(g65
g51
NtRp2469
(dp2470
g54
(dp2471
sg63
g2423
sg56
(lp2472
g49
(g70
g51
NtRp2473
(dp2474
g54
(dp2475
g74
g75
ssg63
g2469
sg56
(lp2476
S'HTTP_ACCEPT_ENCODING'
p2477
asbag49
(g70
g51
NtRp2478
(dp2479
g54
(dp2480
g81
g82
ssg63
g2469
sg56
(lp2481
S':'
asbag49
(g70
g51
NtRp2482
(dp2483
g54
(dp2484
sg63
g2469
sg56
(lp2485
g49
(g50
g51
NtRp2486
(dp2487
g54
(dp2488
g62
I3
ssg63
g2482
sg56
(lp2489
g978
asbasbasbag49
(g65
g51
NtRp2490
(dp2491
g54
(dp2492
sg63
g2423
sg56
(lp2493
g49
(g70
g51
NtRp2494
(dp2495
g54
(dp2496
g74
g75
ssg63
g2490
sg56
(lp2497
S'HTTP_ACCEPT_LANGUAGE'
p2498
asbag49
(g70
g51
NtRp2499
(dp2500
g54
(dp2501
g81
g82
ssg63
g2490
sg56
(lp2502
S':'
asbag49
(g70
g51
NtRp2503
(dp2504
g54
(dp2505
sg63
g2490
sg56
(lp2506
g49
(g50
g51
NtRp2507
(dp2508
g54
(dp2509
g62
I3
ssg63
g2503
sg56
(lp2510
g1000
asbasbasbag49
(g65
g51
NtRp2511
(dp2512
g54
(dp2513
sg63
g2423
sg56
(lp2514
g49
(g70
g51
NtRp2515
(dp2516
g54
(dp2517
g74
g75
ssg63
g2511
sg56
(lp2518
S'HTTP_CONNECTION'
p2519
asbag49
(g70
g51
NtRp2520
(dp2521
g54
(dp2522
g81
g82
ssg63
g2511
sg56
(lp2523
S':'
asbag49
(g70
g51
NtRp2524
(dp2525
g54
(dp2526
sg63
g2511
sg56
(lp2527
g49
(g50
g51
NtRp2528
(dp2529
g54
(dp2530
g62
I3
ssg63
g2524
sg56
(lp2531
g1022
asbasbasbag49
(g65
g51
NtRp2532
(dp2533
g54
(dp2534
sg63
g2423
sg56
(lp2535
g49
(g70
g51
NtRp2536
(dp2537
g54
(dp2538
g74
g75
ssg63
g2532
sg56
(lp2539
S'HTTP_COOKIE'
p2540
asbag49
(g70
g51
NtRp2541
(dp2542
g54
(dp2543
g81
g82
ssg63
g2532
sg56
(lp2544
S':'
asbag49
(g70
g51
NtRp2545
(dp2546
g54
(dp2547
sg63
g2532
sg56
(lp2548
g49
(g50
g51
NtRp2549
(dp2550
g54
(dp2551
g62
I3
ssg63
g2545
sg56
(lp2552
g1044
asbasbasbag49
(g65
g51
NtRp2553
(dp2554
g54
(dp2555
sg63
g2423
sg56
(lp2556
g49
(g70
g51
NtRp2557
(dp2558
g54
(dp2559
g74
g75
ssg63
g2553
sg56
(lp2560
S'HTTP_HOST'
p2561
asbag49
(g70
g51
NtRp2562
(dp2563
g54
(dp2564
g81
g82
ssg63
g2553
sg56
(lp2565
S':'
asbag49
(g70
g51
NtRp2566
(dp2567
g54
(dp2568
sg63
g2553
sg56
(lp2569
g49
(g50
g51
NtRp2570
(dp2571
g54
(dp2572
g62
I3
ssg63
g2566
sg56
(lp2573
g1066
asbasbasbag49
(g65
g51
NtRp2574
(dp2575
g54
(dp2576
sg63
g2423
sg56
(lp2577
g49
(g70
g51
NtRp2578
(dp2579
g54
(dp2580
g74
g75
ssg63
g2574
sg56
(lp2581
S'HTTP_KEEP_ALIVE'
p2582
asbag49
(g70
g51
NtRp2583
(dp2584
g54
(dp2585
g81
g82
ssg63
g2574
sg56
(lp2586
S':'
asbag49
(g70
g51
NtRp2587
(dp2588
g54
(dp2589
sg63
g2574
sg56
(lp2590
g49
(g50
g51
NtRp2591
(dp2592
g54
(dp2593
g62
I3
ssg63
g2587
sg56
(lp2594
g1088
asbasbasbag49
(g65
g51
NtRp2595
(dp2596
g54
(dp2597
sg63
g2423
sg56
(lp2598
g49
(g70
g51
NtRp2599
(dp2600
g54
(dp2601
g74
g75
ssg63
g2595
sg56
(lp2602
S'HTTP_REFERER'
p2603
asbag49
(g70
g51
NtRp2604
(dp2605
g54
(dp2606
g81
g82
ssg63
g2595
sg56
(lp2607
S':'
asbag49
(g70
g51
NtRp2608
(dp2609
g54
(dp2610
sg63
g2595
sg56
(lp2611
g49
(g50
g51
NtRp2612
(dp2613
g54
(dp2614
g62
I3
ssg63
g2608
sg56
(lp2615
g1110
asbasbasbag49
(g65
g51
NtRp2616
(dp2617
g54
(dp2618
sg63
g2423
sg56
(lp2619
g49
(g70
g51
NtRp2620
(dp2621
g54
(dp2622
g74
g75
ssg63
g2616
sg56
(lp2623
S'HTTP_USER_AGENT'
p2624
asbag49
(g70
g51
NtRp2625
(dp2626
g54
(dp2627
g81
g82
ssg63
g2616
sg56
(lp2628
S':'
asbag49
(g70
g51
NtRp2629
(dp2630
g54
(dp2631
sg63
g2616
sg56
(lp2632
g49
(g50
g51
NtRp2633
(dp2634
g54
(dp2635
g62
I3
ssg63
g2629
sg56
(lp2636
g1132
asbasbasbag49
(g65
g51
NtRp2637
(dp2638
g54
(dp2639
sg63
g2423
sg56
(lp2640
g49
(g70
g51
NtRp2641
(dp2642
g54
(dp2643
g74
g75
ssg63
g2637
sg56
(lp2644
S'PATH_INFO'
p2645
asbag49
(g70
g51
NtRp2646
(dp2647
g54
(dp2648
g81
g82
ssg63
g2637
sg56
(lp2649
S':'
asbag49
(g70
g51
NtRp2650
(dp2651
g54
(dp2652
sg63
g2637
sg56
(lp2653
g49
(g50
g51
NtRp2654
(dp2655
g54
(dp2656
g62
I3
ssg63
g2650
sg56
(lp2657
g1196
asbasbasbag49
(g65
g51
NtRp2658
(dp2659
g54
(dp2660
sg63
g2423
sg56
(lp2661
g49
(g70
g51
NtRp2662
(dp2663
g54
(dp2664
g74
g75
ssg63
g2658
sg56
(lp2665
S'QUERY_STRING'
p2666
asbag49
(g70
g51
NtRp2667
(dp2668
g54
(dp2669
g81
g82
ssg63
g2658
sg56
(lp2670
S':'
asbag49
(g70
g51
NtRp2671
(dp2672
g54
(dp2673
sg63
g2658
sg56
(lp2674
g49
(g50
g51
NtRp2675
(dp2676
g54
(dp2677
g62
I3
ssg63
g2671
sg56
(lp2678
g1218
asbasbasbag49
(g65
g51
NtRp2679
(dp2680
g54
(dp2681
sg63
g2423
sg56
(lp2682
g49
(g70
g51
NtRp2683
(dp2684
g54
(dp2685
g74
g75
ssg63
g2679
sg56
(lp2686
S'REMOTE_ADDR'
p2687
asbag49
(g70
g51
NtRp2688
(dp2689
g54
(dp2690
g81
g82
ssg63
g2679
sg56
(lp2691
S':'
asbag49
(g70
g51
NtRp2692
(dp2693
g54
(dp2694
sg63
g2679
sg56
(lp2695
g49
(g50
g51
NtRp2696
(dp2697
g54
(dp2698
g62
I3
ssg63
g2692
sg56
(lp2699
g182
asbasbasbag49
(g65
g51
NtRp2700
(dp2701
g54
(dp2702
sg63
g2423
sg56
(lp2703
g49
(g70
g51
NtRp2704
(dp2705
g54
(dp2706
g74
g75
ssg63
g2700
sg56
(lp2707
S'REMOTE_PORT'
p2708
asbag49
(g70
g51
NtRp2709
(dp2710
g54
(dp2711
g81
g82
ssg63
g2700
sg56
(lp2712
S':'
asbag49
(g70
g51
NtRp2713
(dp2714
g54
(dp2715
sg63
g2700
sg56
(lp2716
g49
(g50
g51
NtRp2717
(dp2718
g54
(dp2719
g62
I3
ssg63
g2713
sg56
(lp2720
g1261
asbasbasbag49
(g65
g51
NtRp2721
(dp2722
g54
(dp2723
sg63
g2423
sg56
(lp2724
g49
(g70
g51
NtRp2725
(dp2726
g54
(dp2727
g74
g75
ssg63
g2721
sg56
(lp2728
S'REQUEST_METHOD'
p2729
asbag49
(g70
g51
NtRp2730
(dp2731
g54
(dp2732
g81
g82
ssg63
g2721
sg56
(lp2733
S':'
asbag49
(g70
g51
NtRp2734
(dp2735
g54
(dp2736
sg63
g2721
sg56
(lp2737
g49
(g50
g51
NtRp2738
(dp2739
g54
(dp2740
g62
I3
ssg63
g2734
sg56
(lp2741
g1283
asbasbasbag49
(g65
g51
NtRp2742
(dp2743
g54
(dp2744
sg63
g2423
sg56
(lp2745
g49
(g70
g51
NtRp2746
(dp2747
g54
(dp2748
g74
g75
ssg63
g2742
sg56
(lp2749
S'SCRIPT_NAME'
p2750
asbag49
(g70
g51
NtRp2751
(dp2752
g54
(dp2753
g81
g82
ssg63
g2742
sg56
(lp2754
S':'
asbag49
(g70
g51
NtRp2755
(dp2756
g54
(dp2757
sg63
g2742
sg56
(lp2758
g49
(g50
g51
NtRp2759
(dp2760
g54
(dp2761
g62
I3
ssg63
g2755
sg56
(lp2762
S''
asbasbasbag49
(g65
g51
NtRp2763
(dp2764
g54
(dp2765
sg63
g2423
sg56
(lp2766
g49
(g70
g51
NtRp2767
(dp2768
g54
(dp2769
g74
g75
ssg63
g2763
sg56
(lp2770
S'SERVER_NAME'
p2771
asbag49
(g70
g51
NtRp2772
(dp2773
g54
(dp2774
g81
g82
ssg63
g2763
sg56
(lp2775
S':'
asbag49
(g70
g51
NtRp2776
(dp2777
g54
(dp2778
sg63
g2763
sg56
(lp2779
g49
(g50
g51
NtRp2780
(dp2781
g54
(dp2782
g62
I3
ssg63
g2776
sg56
(lp2783
g1326
asbasbasbag49
(g65
g51
NtRp2784
(dp2785
g54
(dp2786
sg63
g2423
sg56
(lp2787
g49
(g70
g51
NtRp2788
(dp2789
g54
(dp2790
g74
g75
ssg63
g2784
sg56
(lp2791
S'SERVER_PORT'
p2792
asbag49
(g70
g51
NtRp2793
(dp2794
g54
(dp2795
g81
g82
ssg63
g2784
sg56
(lp2796
S':'
asbag49
(g70
g51
NtRp2797
(dp2798
g54
(dp2799
sg63
g2784
sg56
(lp2800
g49
(g50
g51
NtRp2801
(dp2802
g54
(dp2803
g62
I3
ssg63
g2797
sg56
(lp2804
g1348
asbasbasbag49
(g65
g51
NtRp2805
(dp2806
g54
(dp2807
sg63
g2423
sg56
(lp2808
g49
(g70
g51
NtRp2809
(dp2810
g54
(dp2811
g74
g75
ssg63
g2805
sg56
(lp2812
S'SERVER_PROTOCOL'
p2813
asbag49
(g70
g51
NtRp2814
(dp2815
g54
(dp2816
g81
g82
ssg63
g2805
sg56
(lp2817
S':'
asbag49
(g70
g51
NtRp2818
(dp2819
g54
(dp2820
sg63
g2805
sg56
(lp2821
g49
(g50
g51
NtRp2822
(dp2823
g54
(dp2824
g62
I3
ssg63
g2818
sg56
(lp2825
g1370
asbasbasbag49
(g65
g51
NtRp2826
(dp2827
g54
(dp2828
sg63
g2423
sg56
(lp2829
g49
(g70
g51
NtRp2830
(dp2831
g54
(dp2832
g74
g75
ssg63
g2826
sg56
(lp2833
S'SERVER_SOFTWARE'
p2834
asbag49
(g70
g51
NtRp2835
(dp2836
g54
(dp2837
g81
g82
ssg63
g2826
sg56
(lp2838
S':'
asbag49
(g70
g51
NtRp2839
(dp2840
g54
(dp2841
sg63
g2826
sg56
(lp2842
g49
(g50
g51
NtRp2843
(dp2844
g54
(dp2845
g62
I3
ssg63
g2839
sg56
(lp2846
g1392
asbasbasbag49
(g65
g51
NtRp2847
(dp2848
g54
(dp2849
sg63
g2423
sg56
(lp2850
g49
(g70
g51
NtRp2851
(dp2852
g54
(dp2853
g74
g75
ssg63
g2847
sg56
(lp2854
S'wsgi.errors'
p2855
asbag49
(g70
g51
NtRp2856
(dp2857
g54
(dp2858
g81
g82
ssg63
g2847
sg56
(lp2859
S':'
asbag49
(g70
g51
NtRp2860
(dp2861
g54
(dp2862
sg63
g2847
sg56
(lp2863
g49
(g50
g51
NtRp2864
(dp2865
g54
(dp2866
g62
I3
ssg63
g2860
sg56
(lp2867
S"<open file '<stderr>', mode 'w' at 0x002C00B0>"
p2868
asbasbasbag49
(g65
g51
NtRp2869
(dp2870
g54
(dp2871
sg63
g2423
sg56
(lp2872
g49
(g70
g51
NtRp2873
(dp2874
g54
(dp2875
g74
g75
ssg63
g2869
sg56
(lp2876
S'wsgi.file_wrapper'
p2877
asbag49
(g70
g51
NtRp2878
(dp2879
g54
(dp2880
g81
g82
ssg63
g2869
sg56
(lp2881
S':'
asbag49
(g70
g51
NtRp2882
(dp2883
g54
(dp2884
sg63
g2869
sg56
(lp2885
g49
(g50
g51
NtRp2886
(dp2887
g54
(dp2888
g62
I3
ssg63
g2882
sg56
(lp2889
S'<class wsgiref.util.FileWrapper at 0x0210FCF0>'
p2890
asbasbasbag49
(g65
g51
NtRp2891
(dp2892
g54
(dp2893
sg63
g2423
sg56
(lp2894
g49
(g70
g51
NtRp2895
(dp2896
g54
(dp2897
g74
g75
ssg63
g2891
sg56
(lp2898
S'wsgi.input'
p2899
asbag49
(g70
g51
NtRp2900
(dp2901
g54
(dp2902
g81
g82
ssg63
g2891
sg56
(lp2903
S':'
asbag49
(g70
g51
NtRp2904
(dp2905
g54
(dp2906
sg63
g2891
sg56
(lp2907
g49
(g50
g51
NtRp2908
(dp2909
g54
(dp2910
g62
I3
ssg63
g2904
sg56
(lp2911
S'<cStringIO.StringO object at 0x06D68D00>'
p2912
asbasbasbag49
(g65
g51
NtRp2913
(dp2914
g54
(dp2915
sg63
g2423
sg56
(lp2916
g49
(g70
g51
NtRp2917
(dp2918
g54
(dp2919
g74
g75
ssg63
g2913
sg56
(lp2920
S'wsgi.multiprocess'
p2921
asbag49
(g70
g51
NtRp2922
(dp2923
g54
(dp2924
g81
g82
ssg63
g2913
sg56
(lp2925
S':'
asbag49
(g70
g51
NtRp2926
(dp2927
g54
(dp2928
sg63
g2913
sg56
(lp2929
g49
(g50
g51
NtRp2930
(dp2931
g54
(dp2932
g62
I3
ssg63
g2926
sg56
(lp2933
g92
asbasbasbag49
(g65
g51
NtRp2934
(dp2935
g54
(dp2936
sg63
g2423
sg56
(lp2937
g49
(g70
g51
NtRp2938
(dp2939
g54
(dp2940
g74
g75
ssg63
g2934
sg56
(lp2941
S'wsgi.multithread'
p2942
asbag49
(g70
g51
NtRp2943
(dp2944
g54
(dp2945
g81
g82
ssg63
g2934
sg56
(lp2946
S':'
asbag49
(g70
g51
NtRp2947
(dp2948
g54
(dp2949
sg63
g2934
sg56
(lp2950
g49
(g50
g51
NtRp2951
(dp2952
g54
(dp2953
g62
I3
ssg63
g2947
sg56
(lp2954
g1632
asbasbasbag49
(g65
g51
NtRp2955
(dp2956
g54
(dp2957
sg63
g2423
sg56
(lp2958
g49
(g70
g51
NtRp2959
(dp2960
g54
(dp2961
g74
g75
ssg63
g2955
sg56
(lp2962
S'wsgi.run_once'
p2963
asbag49
(g70
g51
NtRp2964
(dp2965
g54
(dp2966
g81
g82
ssg63
g2955
sg56
(lp2967
S':'
asbag49
(g70
g51
NtRp2968
(dp2969
g54
(dp2970
sg63
g2955
sg56
(lp2971
g49
(g50
g51
NtRp2972
(dp2973
g54
(dp2974
g62
I3
ssg63
g2968
sg56
(lp2975
g92
asbasbasbag49
(g65
g51
NtRp2976
(dp2977
g54
(dp2978
sg63
g2423
sg56
(lp2979
g49
(g70
g51
NtRp2980
(dp2981
g54
(dp2982
g74
g75
ssg63
g2976
sg56
(lp2983
S'wsgi.url_scheme'
p2984
asbag49
(g70
g51
NtRp2985
(dp2986
g54
(dp2987
g81
g82
ssg63
g2976
sg56
(lp2988
S':'
asbag49
(g70
g51
NtRp2989
(dp2990
g54
(dp2991
sg63
g2976
sg56
(lp2992
g49
(g50
g51
NtRp2993
(dp2994
g54
(dp2995
g62
I3
ssg63
g2989
sg56
(lp2996
g1675
asbasbasbag49
(g65
g51
NtRp2997
(dp2998
g54
(dp2999
sg63
g2423
sg56
(lp3000
g49
(g70
g51
NtRp3001
(dp3002
g54
(dp3003
g74
g75
ssg63
g2997
sg56
(lp3004
S'wsgi.version'
p3005
asbag49
(g70
g51
NtRp3006
(dp3007
g54
(dp3008
g81
g82
ssg63
g2997
sg56
(lp3009
S':'
asbag49
(g70
g51
NtRp3010
(dp3011
g54
(dp3012
sg63
g2997
sg56
(lp3013
g49
(g50
g51
NtRp3014
(dp3015
g54
(dp3016
g62
I3
ssg63
g3010
sg56
(lp3017
S'1'
asbasbasbasbasbasbasbasbasbasbasbasbasbsS'frames'
p3018
(lp3019
(dp3020
S'file'
p3021
S'D:\\UCZELNIA\\ELKA\\tin\\web2py\\web2py_win\\web2py\\gluon\\restricted.py'
p3022
sS'dump'
p3023
(dp3024
sS'lnum'
p3025
I204
sS'lines'
p3026
(dp3027
sS'call'
p3028
S'(code="# -*- coding: utf-8 -*- \\n\\n######################...no\'\\n\\nresponse._vars=response._caller(add_points)\\n", environment={\'A\': <class \'gluon.html.A\'>, \'Auth\': <class \'gluon.tools.Auth\'>, \'B\': <class \'gluon.html.B\'>, \'BEAUTIFY\': <class \'gluon.html.BEAUTIFY\'>, \'BODY\': <class \'gluon.html.BODY\'>, \'BR\': <class \'gluon.html.BR\'>, \'BUTTON\': <class \'gluon.html.BUTTON\'>, \'CAT\': <class \'gluon.html.CAT\'>, \'CENTER\': <class \'gluon.html.CENTER\'>, \'CLEANUP\': <class \'gluon.validators.CLEANUP\'>, ...}, layer=r\'D:\\UCZELNIA\\ELKA\\tin\\web2py\\web2py_win\\web2py\\applications\\ASA\\controllers/default.py\')'
p3029
sS'func'
p3030
S'restricted'
p3031
sa(dp3032
g3021
S'D:\\UCZELNIA\\ELKA\\tin\\web2py\\web2py_win\\web2py\\applications\\ASA\\controllers\\default.py'
p3033
sg3023
(dp3034
sg3025
I229
sg3026
(dp3035
I224
S'        akt_set.update(dokladnosc= 3.0)'
p3036
sI225
S'        akt_set.update(w_obszarze= czy_wewnatrz)'
p3037
sI226
S"        return 'dodano'"
p3038
sI227
S"    return 'nie dodano'"
p3039
sI218
S''
sI219
S''
sI220
S'        akt_set = db(db.pracownik.id==txt_l[0])'
p3040
sI221
S'        akt_set.update(latitude = txt_l[i-2])'
p3041
sI222
S'        akt_set.update(longitude= txt_l[i-1])'
p3042
sI223
S'        akt_set.update(czas= teraz)'
p3043
ssg3028
S'()'
p3044
sg3030
S'<module>'
p3045
sa(dp3046
g3021
S'D:\\UCZELNIA\\ELKA\\tin\\web2py\\web2py_win\\web2py\\gluon\\globals.py'
p3047
sg3023
(dp3048
sg3025
I172
sg3026
(dp3049
sg3028
S'(f=<function add_points at 0x06D548B0>)'
p3050
sg3030
S'<lambda>'
p3051
sa(dp3052
g3021
S'D:\\UCZELNIA\\ELKA\\tin\\web2py\\web2py_win\\web2py\\applications\\ASA\\controllers\\default.py'
p3053
sg3023
(dp3054
sg3025
I202
sg3026
(dp3055
I197
S'        k = len(txt_l)'
p3056
sI198
S'        i=2    #ile wczytanych'
p3057
sI199
S'        teraz = datetime.datetime.today() - datetime.timedelta(minutes=74)'
p3058
sI200
S'        delta = datetime.timedelta(seconds=15)'
p3059
sI201
S'        while i+2<=k :'
p3060
sI202
S'            czy_wewnatrz = point_inside_polygon(txt_l[i],txt_l[i+1],obszar_lat,obszar_lng)'
p3061
sI203
S'            db.log.insert(id_pracownik = id_prac, czas = teraz, latitude=txt_l[i], longitude=txt_l[i+1], dokladnosc = 3.0, w_obszarze = czy_wewnatrz)   #todo'
p3062
sI204
S'            i=i+2'
p3063
sI205
S'            teraz=teraz+delta'
p3064
sI206
S'        #ustawienie tabeli pracownik'
p3065
ssg3028
S'()'
p3066
sg3030
S'add_points'
p3067
sasS'pyver'
p3068
S'Python 2.5.4: D:\\UCZELNIA\\ELKA\\tin\\web2py\\web2py_win\\web2py\\web2py.exe'
p3069
sS'session'
p3070
g49
(g50
g51
NtRp3071
(dp3072
g54
(dp3073
sg56
(lp3074
g49
(g58
g51
NtRp3075
(dp3076
g54
(dp3077
g62
I5
ssg63
Nsg56
(lp3078
g49
(g65
g51
NtRp3079
(dp3080
g54
(dp3081
sg63
g3075
sg56
(lp3082
g49
(g70
g51
NtRp3083
(dp3084
g54
(dp3085
g74
g75
ssg63
g3079
sg56
(lp3086
S'last_query'
p3087
asbag49
(g70
g51
NtRp3088
(dp3089
g54
(dp3090
g81
g82
ssg63
g3079
sg56
(lp3091
S':'
asbag49
(g70
g51
NtRp3092
(dp3093
g54
(dp3094
sg63
g3079
sg56
(lp3095
g49
(g50
g51
NtRp3096
(dp3097
g54
(dp3098
g62
I5
ssg63
g3092
sg56
(lp3099
S'db.log'
p3100
asbasbasbasbasbsS'etype'
p3101
S"<type 'exceptions.UnboundLocalError'>"
p3102
sS'date'
p3103
S'Mon Jan 09 17:41:41 2012'
p3104
sS'response'
p3105
g49
(g50
g51
NtRp3106
(dp3107
g54
(dp3108
sg56
(lp3109
g49
(g58
g51
NtRp3110
(dp3111
g54
(dp3112
g62
I5
ssg63
Nsg56
(lp3113
g49
(g65
g51
NtRp3114
(dp3115
g54
(dp3116
sg63
g3110
sg56
(lp3117
g49
(g70
g51
NtRp3118
(dp3119
g54
(dp3120
g74
g75
ssg63
g3114
sg56
(lp3121
g147
asbag49
(g70
g51
NtRp3122
(dp3123
g54
(dp3124
g81
g82
ssg63
g3114
sg56
(lp3125
S':'
asbag49
(g70
g51
NtRp3126
(dp3127
g54
(dp3128
sg63
g3114
sg56
(lp3129
g49
(g50
g51
NtRp3130
(dp3131
g54
(dp3132
g62
I5
ssg63
g3126
sg56
(lp3133
S'<cStringIO.StringO object at 0x05EDAEE0>'
p3134
asbasbasbag49
(g65
g51
NtRp3135
(dp3136
g54
(dp3137
sg63
g3110
sg56
(lp3138
g49
(g70
g51
NtRp3139
(dp3140
g54
(dp3141
g74
g75
ssg63
g3135
sg56
(lp3142
g213
asbag49
(g70
g51
NtRp3143
(dp3144
g54
(dp3145
g81
g82
ssg63
g3135
sg56
(lp3146
S':'
asbag49
(g70
g51
NtRp3147
(dp3148
g54
(dp3149
sg63
g3135
sg56
(lp3150
g49
(g50
g51
NtRp3151
(dp3152
g54
(dp3153
g62
I5
ssg63
g3147
sg56
(lp3154
g49
(g58
g51
NtRp3155
(dp3156
g54
(dp3157
g62
I4
ssg63
Nsg56
(lp3158
g49
(g65
g51
NtRp3159
(dp3160
g54
(dp3161
sg63
g3155
sg56
(lp3162
g49
(g70
g51
NtRp3163
(dp3164
g54
(dp3165
g74
g75
ssg63
g3159
sg56
(lp3166
S'session_id_asa'
p3167
asbag49
(g70
g51
NtRp3168
(dp3169
g54
(dp3170
g81
g82
ssg63
g3159
sg56
(lp3171
S':'
asbag49
(g70
g51
NtRp3172
(dp3173
g54
(dp3174
sg63
g3159
sg56
(lp3175
g49
(g50
g51
NtRp3176
(dp3177
g54
(dp3178
g62
I4
ssg63
g3172
sg56
(lp3179
g49
(g58
g51
NtRp3180
(dp3181
g54
(dp3182
g62
I3
ssg63
Nsg56
(lp3183
g49
(g65
g51
NtRp3184
(dp3185
g54
(dp3186
sg63
g3180
sg56
(lp3187
g49
(g70
g51
NtRp3188
(dp3189
g54
(dp3190
g74
g75
ssg63
g3184
sg56
(lp3191
g263
asbag49
(g70
g51
NtRp3192
(dp3193
g54
(dp3194
g81
g82
ssg63
g3184
sg56
(lp3195
S':'
asbag49
(g70
g51
NtRp3196
(dp3197
g54
(dp3198
sg63
g3184
sg56
(lp3199
g49
(g50
g51
NtRp3200
(dp3201
g54
(dp3202
g62
I3
ssg63
g3196
sg56
(lp3203
S''
asbasbasbag49
(g65
g51
NtRp3204
(dp3205
g54
(dp3206
sg63
g3180
sg56
(lp3207
g49
(g70
g51
NtRp3208
(dp3209
g54
(dp3210
g74
g75
ssg63
g3204
sg56
(lp3211
g284
asbag49
(g70
g51
NtRp3212
(dp3213
g54
(dp3214
g81
g82
ssg63
g3204
sg56
(lp3215
S':'
asbag49
(g70
g51
NtRp3216
(dp3217
g54
(dp3218
sg63
g3204
sg56
(lp3219
g49
(g50
g51
NtRp3220
(dp3221
g54
(dp3222
g62
I3
ssg63
g3216
sg56
(lp3223
S''
asbasbasbag49
(g65
g51
NtRp3224
(dp3225
g54
(dp3226
sg63
g3180
sg56
(lp3227
g49
(g70
g51
NtRp3228
(dp3229
g54
(dp3230
g74
g75
ssg63
g3224
sg56
(lp3231
g305
asbag49
(g70
g51
NtRp3232
(dp3233
g54
(dp3234
g81
g82
ssg63
g3224
sg56
(lp3235
S':'
asbag49
(g70
g51
NtRp3236
(dp3237
g54
(dp3238
sg63
g3224
sg56
(lp3239
g49
(g50
g51
NtRp3240
(dp3241
g54
(dp3242
g62
I3
ssg63
g3236
sg56
(lp3243
S''
asbasbasbag49
(g65
g51
NtRp3244
(dp3245
g54
(dp3246
sg63
g3180
sg56
(lp3247
g49
(g70
g51
NtRp3248
(dp3249
g54
(dp3250
g74
g75
ssg63
g3244
sg56
(lp3251
g326
asbag49
(g70
g51
NtRp3252
(dp3253
g54
(dp3254
g81
g82
ssg63
g3244
sg56
(lp3255
S':'
asbag49
(g70
g51
NtRp3256
(dp3257
g54
(dp3258
sg63
g3244
sg56
(lp3259
g49
(g50
g51
NtRp3260
(dp3261
g54
(dp3262
g62
I3
ssg63
g3256
sg56
(lp3263
S''
asbasbasbag49
(g65
g51
NtRp3264
(dp3265
g54
(dp3266
sg63
g3180
sg56
(lp3267
g49
(g70
g51
NtRp3268
(dp3269
g54
(dp3270
g74
g75
ssg63
g3264
sg56
(lp3271
g347
asbag49
(g70
g51
NtRp3272
(dp3273
g54
(dp3274
g81
g82
ssg63
g3264
sg56
(lp3275
S':'
asbag49
(g70
g51
NtRp3276
(dp3277
g54
(dp3278
sg63
g3264
sg56
(lp3279
g49
(g50
g51
NtRp3280
(dp3281
g54
(dp3282
g62
I3
ssg63
g3276
sg56
(lp3283
S'/'
asbasbasbag49
(g65
g51
NtRp3284
(dp3285
g54
(dp3286
sg63
g3180
sg56
(lp3287
g49
(g70
g51
NtRp3288
(dp3289
g54
(dp3290
g74
g75
ssg63
g3284
sg56
(lp3291
g368
asbag49
(g70
g51
NtRp3292
(dp3293
g54
(dp3294
g81
g82
ssg63
g3284
sg56
(lp3295
S':'
asbag49
(g70
g51
NtRp3296
(dp3297
g54
(dp3298
sg63
g3284
sg56
(lp3299
g49
(g50
g51
NtRp3300
(dp3301
g54
(dp3302
g62
I3
ssg63
g3296
sg56
(lp3303
S''
asbasbasbag49
(g65
g51
NtRp3304
(dp3305
g54
(dp3306
sg63
g3180
sg56
(lp3307
g49
(g70
g51
NtRp3308
(dp3309
g54
(dp3310
g74
g75
ssg63
g3304
sg56
(lp3311
g389
asbag49
(g70
g51
NtRp3312
(dp3313
g54
(dp3314
g81
g82
ssg63
g3304
sg56
(lp3315
S':'
asbag49
(g70
g51
NtRp3316
(dp3317
g54
(dp3318
sg63
g3304
sg56
(lp3319
g49
(g50
g51
NtRp3320
(dp3321
g54
(dp3322
g62
I3
ssg63
g3316
sg56
(lp3323
S''
asbasbasbasbasbasbasbasbasbasbasbag49
(g65
g51
NtRp3324
(dp3325
g54
(dp3326
sg63
g3110
sg56
(lp3327
g49
(g70
g51
NtRp3328
(dp3329
g54
(dp3330
g74
g75
ssg63
g3324
sg56
(lp3331
S'files'
p3332
asbag49
(g70
g51
NtRp3333
(dp3334
g54
(dp3335
g81
g82
ssg63
g3324
sg56
(lp3336
S':'
asbag49
(g70
g51
NtRp3337
(dp3338
g54
(dp3339
sg63
g3324
sg56
(lp3340
g49
(g50
g51
NtRp3341
(dp3342
g54
(dp3343
g62
I5
ssg63
g3337
sg56
(lp3344
g49
(g58
g51
NtRp3345
(dp3346
g54
(dp3347
g62
I4
ssg63
Nsg56
(lp3348
sbasbasbasbag49
(g65
g51
NtRp3349
(dp3350
g54
(dp3351
sg63
g3110
sg56
(lp3352
g49
(g70
g51
NtRp3353
(dp3354
g54
(dp3355
g74
g75
ssg63
g3349
sg56
(lp3356
S'flash'
p3357
asbag49
(g70
g51
NtRp3358
(dp3359
g54
(dp3360
g81
g82
ssg63
g3349
sg56
(lp3361
S':'
asbag49
(g70
g51
NtRp3362
(dp3363
g54
(dp3364
sg63
g3349
sg56
(lp3365
g49
(g50
g51
NtRp3366
(dp3367
g54
(dp3368
g62
I5
ssg63
g3362
sg56
(lp3369
S''
asbasbasbag49
(g65
g51
NtRp3370
(dp3371
g54
(dp3372
sg63
g3110
sg56
(lp3373
g49
(g70
g51
NtRp3374
(dp3375
g54
(dp3376
g74
g75
ssg63
g3370
sg56
(lp3377
S'generic_patterns'
p3378
asbag49
(g70
g51
NtRp3379
(dp3380
g54
(dp3381
g81
g82
ssg63
g3370
sg56
(lp3382
S':'
asbag49
(g70
g51
NtRp3383
(dp3384
g54
(dp3385
sg63
g3370
sg56
(lp3386
g49
(g50
g51
NtRp3387
(dp3388
g54
(dp3389
g62
I5
ssg63
g3383
sg56
(lp3390
g49
(g58
g51
NtRp3391
(dp3392
g54
(dp3393
g62
I4
ssg63
Nsg56
(lp3394
sbasbasbasbag49
(g65
g51
NtRp3395
(dp3396
g54
(dp3397
sg63
g3110
sg56
(lp3398
g49
(g70
g51
NtRp3399
(dp3400
g54
(dp3401
g74
g75
ssg63
g3395
sg56
(lp3402
S'headers'
p3403
asbag49
(g70
g51
NtRp3404
(dp3405
g54
(dp3406
g81
g82
ssg63
g3395
sg56
(lp3407
S':'
asbag49
(g70
g51
NtRp3408
(dp3409
g54
(dp3410
sg63
g3395
sg56
(lp3411
g49
(g50
g51
NtRp3412
(dp3413
g54
(dp3414
g62
I5
ssg63
g3408
sg56
(lp3415
g49
(g58
g51
NtRp3416
(dp3417
g54
(dp3418
g62
I4
ssg63
Nsg56
(lp3419
g49
(g65
g51
NtRp3420
(dp3421
g54
(dp3422
sg63
g3416
sg56
(lp3423
g49
(g70
g51
NtRp3424
(dp3425
g54
(dp3426
g74
g75
ssg63
g3420
sg56
(lp3427
S'Cache-Control'
p3428
asbag49
(g70
g51
NtRp3429
(dp3430
g54
(dp3431
g81
g82
ssg63
g3420
sg56
(lp3432
S':'
asbag49
(g70
g51
NtRp3433
(dp3434
g54
(dp3435
sg63
g3420
sg56
(lp3436
g49
(g50
g51
NtRp3437
(dp3438
g54
(dp3439
g62
I4
ssg63
g3433
sg56
(lp3440
S'no-store, no-cache, must-revalidate, post-check=0, pre-check=0'
p3441
asbasbasbag49
(g65
g51
NtRp3442
(dp3443
g54
(dp3444
sg63
g3416
sg56
(lp3445
g49
(g70
g51
NtRp3446
(dp3447
g54
(dp3448
g74
g75
ssg63
g3442
sg56
(lp3449
S'Content-Type'
p3450
asbag49
(g70
g51
NtRp3451
(dp3452
g54
(dp3453
g81
g82
ssg63
g3442
sg56
(lp3454
S':'
asbag49
(g70
g51
NtRp3455
(dp3456
g54
(dp3457
sg63
g3442
sg56
(lp3458
g49
(g50
g51
NtRp3459
(dp3460
g54
(dp3461
g62
I4
ssg63
g3455
sg56
(lp3462
S'text/html; charset=utf-8'
p3463
asbasbasbag49
(g65
g51
NtRp3464
(dp3465
g54
(dp3466
sg63
g3416
sg56
(lp3467
g49
(g70
g51
NtRp3468
(dp3469
g54
(dp3470
g74
g75
ssg63
g3464
sg56
(lp3471
S'Expires'
p3472
asbag49
(g70
g51
NtRp3473
(dp3474
g54
(dp3475
g81
g82
ssg63
g3464
sg56
(lp3476
S':'
asbag49
(g70
g51
NtRp3477
(dp3478
g54
(dp3479
sg63
g3464
sg56
(lp3480
g49
(g50
g51
NtRp3481
(dp3482
g54
(dp3483
g62
I4
ssg63
g3477
sg56
(lp3484
S'Mon, 09 Jan 2012 16:41:41 GMT'
p3485
asbasbasbag49
(g65
g51
NtRp3486
(dp3487
g54
(dp3488
sg63
g3416
sg56
(lp3489
g49
(g70
g51
NtRp3490
(dp3491
g54
(dp3492
g74
g75
ssg63
g3486
sg56
(lp3493
S'Pragma'
p3494
asbag49
(g70
g51
NtRp3495
(dp3496
g54
(dp3497
g81
g82
ssg63
g3486
sg56
(lp3498
S':'
asbag49
(g70
g51
NtRp3499
(dp3500
g54
(dp3501
sg63
g3486
sg56
(lp3502
g49
(g50
g51
NtRp3503
(dp3504
g54
(dp3505
g62
I4
ssg63
g3499
sg56
(lp3506
S'no-cache'
p3507
asbasbasbag49
(g65
g51
NtRp3508
(dp3509
g54
(dp3510
sg63
g3416
sg56
(lp3511
g49
(g70
g51
NtRp3512
(dp3513
g54
(dp3514
g74
g75
ssg63
g3508
sg56
(lp3515
S'X-Powered-By'
p3516
asbag49
(g70
g51
NtRp3517
(dp3518
g54
(dp3519
g81
g82
ssg63
g3508
sg56
(lp3520
S':'
asbag49
(g70
g51
NtRp3521
(dp3522
g54
(dp3523
sg63
g3508
sg56
(lp3524
g49
(g50
g51
NtRp3525
(dp3526
g54
(dp3527
g62
I4
ssg63
g3521
sg56
(lp3528
S'web2py'
p3529
asbasbasbasbasbasbasbag49
(g65
g51
NtRp3530
(dp3531
g54
(dp3532
sg63
g3110
sg56
(lp3533
g49
(g70
g51
NtRp3534
(dp3535
g54
(dp3536
g74
g75
ssg63
g3530
sg56
(lp3537
S'menu'
p3538
asbag49
(g70
g51
NtRp3539
(dp3540
g54
(dp3541
g81
g82
ssg63
g3530
sg56
(lp3542
S':'
asbag49
(g70
g51
NtRp3543
(dp3544
g54
(dp3545
sg63
g3530
sg56
(lp3546
g49
(g50
g51
NtRp3547
(dp3548
g54
(dp3549
g62
I5
ssg63
g3543
sg56
(lp3550
g49
(g58
g51
NtRp3551
(dp3552
g54
(dp3553
g62
I4
ssg63
Nsg56
(lp3554
g49
(g65
g51
NtRp3555
(dp3556
g54
(dp3557
sg63
g3551
sg56
(lp3558
g49
(g70
g51
NtRp3559
(dp3560
g54
(dp3561
sg63
g3555
sg56
(lp3562
g49
(g50
g51
NtRp3563
(dp3564
g54
(dp3565
g62
I4
ssg63
g3559
sg56
(lp3566
g49
(g58
g51
NtRp3567
(dp3568
g54
(dp3569
g62
I3
ssg63
Nsg56
(lp3570
g49
(g65
g51
NtRp3571
(dp3572
g54
(dp3573
sg63
g3567
sg56
(lp3574
g49
(g70
g51
NtRp3575
(dp3576
g54
(dp3577
sg63
g3571
sg56
(lp3578
g49
(g50
g51
NtRp3579
(dp3580
g54
(dp3581
g62
I3
ssg63
g3575
sg56
(lp3582
cgluon.languages
lazyT_unpickle
p3583
(S't\x06\x00\x00\x00Indeks'
tRp3584
asbasbasbag49
(g65
g51
NtRp3585
(dp3586
g54
(dp3587
sg63
g3567
sg56
(lp3588
g49
(g70
g51
NtRp3589
(dp3590
g54
(dp3591
sg63
g3585
sg56
(lp3592
g49
(g50
g51
NtRp3593
(dp3594
g54
(dp3595
g62
I3
ssg63
g3589
sg56
(lp3596
g92
asbasbasbag49
(g65
g51
NtRp3597
(dp3598
g54
(dp3599
sg63
g3567
sg56
(lp3600
g49
(g70
g51
NtRp3601
(dp3602
g54
(dp3603
sg63
g3597
sg56
(lp3604
g49
(g50
g51
NtRp3605
(dp3606
g54
(dp3607
g62
I3
ssg63
g3601
sg56
(lp3608
S'/ASA/default/index'
p3609
asbasbasbag49
(g65
g51
NtRp3610
(dp3611
g54
(dp3612
sg63
g3567
sg56
(lp3613
g49
(g70
g51
NtRp3614
(dp3615
g54
(dp3616
sg63
g3610
sg56
(lp3617
g49
(g50
g51
NtRp3618
(dp3619
g54
(dp3620
g62
I3
ssg63
g3614
sg56
(lp3621
g49
(g58
g51
NtRp3622
(dp3623
g54
(dp3624
g62
I2
ssg63
Nsg56
(lp3625
sbasbasbasbasbasbasbasbasbasbasbasbag49
(g65
g51
NtRp3626
(dp3627
g54
(dp3628
sg63
g3110
sg56
(lp3629
g49
(g70
g51
NtRp3630
(dp3631
g54
(dp3632
g74
g75
ssg63
g3626
sg56
(lp3633
S'menu_edit'
p3634
asbag49
(g70
g51
NtRp3635
(dp3636
g54
(dp3637
g81
g82
ssg63
g3626
sg56
(lp3638
S':'
asbag49
(g70
g51
NtRp3639
(dp3640
g54
(dp3641
sg63
g3626
sg56
(lp3642
g49
(g50
g51
NtRp3643
(dp3644
g54
(dp3645
g62
I5
ssg63
g3639
sg56
(lp3646
g49
(g58
g51
NtRp3647
(dp3648
g54
(dp3649
g62
I4
ssg63
Nsg56
(lp3650
g49
(g65
g51
NtRp3651
(dp3652
g54
(dp3653
sg63
g3647
sg56
(lp3654
g49
(g70
g51
NtRp3655
(dp3656
g54
(dp3657
sg63
g3651
sg56
(lp3658
g49
(g50
g51
NtRp3659
(dp3660
g54
(dp3661
g62
I4
ssg63
g3655
sg56
(lp3662
g49
(g58
g51
NtRp3663
(dp3664
g54
(dp3665
g62
I3
ssg63
Nsg56
(lp3666
g49
(g65
g51
NtRp3667
(dp3668
g54
(dp3669
sg63
g3663
sg56
(lp3670
g49
(g70
g51
NtRp3671
(dp3672
g54
(dp3673
sg63
g3667
sg56
(lp3674
g49
(g50
g51
NtRp3675
(dp3676
g54
(dp3677
g62
I3
ssg63
g3671
sg56
(lp3678
g3583
(S't\x06\x00\x00\x00Edycja'
tRp3679
asbasbasbag49
(g65
g51
NtRp3680
(dp3681
g54
(dp3682
sg63
g3663
sg56
(lp3683
g49
(g70
g51
NtRp3684
(dp3685
g54
(dp3686
sg63
g3680
sg56
(lp3687
g49
(g50
g51
NtRp3688
(dp3689
g54
(dp3690
g62
I3
ssg63
g3684
sg56
(lp3691
g92
asbasbasbag49
(g65
g51
NtRp3692
(dp3693
g54
(dp3694
sg63
g3663
sg56
(lp3695
g49
(g70
g51
NtRp3696
(dp3697
g54
(dp3698
sg63
g3692
sg56
(lp3699
g49
(g50
g51
NtRp3700
(dp3701
g54
(dp3702
g62
I3
ssg63
g3696
sg56
(lp3703
S'/admin/default/design/ASA'
p3704
asbasbasbag49
(g65
g51
NtRp3705
(dp3706
g54
(dp3707
sg63
g3663
sg56
(lp3708
g49
(g70
g51
NtRp3709
(dp3710
g54
(dp3711
sg63
g3705
sg56
(lp3712
g49
(g50
g51
NtRp3713
(dp3714
g54
(dp3715
g62
I3
ssg63
g3709
sg56
(lp3716
g49
(g58
g51
NtRp3717
(dp3718
g54
(dp3719
g62
I2
ssg63
Nsg56
(lp3720
g49
(g65
g51
NtRp3721
(dp3722
g54
(dp3723
sg63
g3717
sg56
(lp3724
g49
(g70
g51
NtRp3725
(dp3726
g54
(dp3727
sg63
g3721
sg56
(lp3728
g49
(g50
g51
NtRp3729
(dp3730
g54
(dp3731
g62
I2
ssg63
g3725
sg56
(lp3732
g49
(g58
g51
NtRp3733
(dp3734
g54
(dp3735
g62
I1
ssg63
Nsg56
(lp3736
g49
(g65
g51
NtRp3737
(dp3738
g54
(dp3739
sg63
g3733
sg56
(lp3740
g49
(g70
g51
NtRp3741
(dp3742
g54
(dp3743
sg63
g3737
sg56
(lp3744
g49
(g50
g51
NtRp3745
(dp3746
g54
(dp3747
g62
I1
ssg63
g3741
sg56
(lp3748
g3583
(S't\t\x00\x00\x00Kontroler'
tRp3749
asbasbasbag49
(g65
g51
NtRp3750
(dp3751
g54
(dp3752
sg63
g3733
sg56
(lp3753
g49
(g70
g51
NtRp3754
(dp3755
g54
(dp3756
sg63
g3750
sg56
(lp3757
g49
(g50
g51
NtRp3758
(dp3759
g54
(dp3760
g62
I1
ssg63
g3754
sg56
(lp3761
I00
asbasbasbag49
(g65
g51
NtRp3762
(dp3763
g54
(dp3764
sg63
g3733
sg56
(lp3765
g49
(g70
g51
NtRp3766
(dp3767
g54
(dp3768
sg63
g3762
sg56
(lp3769
g49
(g50
g51
NtRp3770
(dp3771
g54
(dp3772
g62
I1
ssg63
g3766
sg56
(lp3773
S'/admin/default/edit/ASA/controllers/default.py'
p3774
asbasbasbasbasbasbasbag49
(g65
g51
NtRp3775
(dp3776
g54
(dp3777
sg63
g3717
sg56
(lp3778
g49
(g70
g51
NtRp3779
(dp3780
g54
(dp3781
sg63
g3775
sg56
(lp3782
g49
(g50
g51
NtRp3783
(dp3784
g54
(dp3785
g62
I2
ssg63
g3779
sg56
(lp3786
g49
(g58
g51
NtRp3787
(dp3788
g54
(dp3789
g62
I1
ssg63
Nsg56
(lp3790
g49
(g65
g51
NtRp3791
(dp3792
g54
(dp3793
sg63
g3787
sg56
(lp3794
g49
(g70
g51
NtRp3795
(dp3796
g54
(dp3797
sg63
g3791
sg56
(lp3798
g49
(g50
g51
NtRp3799
(dp3800
g54
(dp3801
g62
I1
ssg63
g3795
sg56
(lp3802
g3583
(S't\x05\x00\x00\x00Widok'
tRp3803
asbasbasbag49
(g65
g51
NtRp3804
(dp3805
g54
(dp3806
sg63
g3787
sg56
(lp3807
g49
(g70
g51
NtRp3808
(dp3809
g54
(dp3810
sg63
g3804
sg56
(lp3811
g49
(g50
g51
NtRp3812
(dp3813
g54
(dp3814
g62
I1
ssg63
g3808
sg56
(lp3815
I00
asbasbasbag49
(g65
g51
NtRp3816
(dp3817
g54
(dp3818
sg63
g3787
sg56
(lp3819
g49
(g70
g51
NtRp3820
(dp3821
g54
(dp3822
sg63
g3816
sg56
(lp3823
g49
(g50
g51
NtRp3824
(dp3825
g54
(dp3826
g62
I1
ssg63
g3820
sg56
(lp3827
S'/admin/default/edit/ASA/views/default/add_points.html'
p3828
asbasbasbasbasbasbasbag49
(g65
g51
NtRp3829
(dp3830
g54
(dp3831
sg63
g3717
sg56
(lp3832
g49
(g70
g51
NtRp3833
(dp3834
g54
(dp3835
sg63
g3829
sg56
(lp3836
g49
(g50
g51
NtRp3837
(dp3838
g54
(dp3839
g62
I2
ssg63
g3833
sg56
(lp3840
g49
(g58
g51
NtRp3841
(dp3842
g54
(dp3843
g62
I1
ssg63
Nsg56
(lp3844
g49
(g65
g51
NtRp3845
(dp3846
g54
(dp3847
sg63
g3841
sg56
(lp3848
g49
(g70
g51
NtRp3849
(dp3850
g54
(dp3851
sg63
g3845
sg56
(lp3852
g49
(g50
g51
NtRp3853
(dp3854
g54
(dp3855
g62
I1
ssg63
g3849
sg56
(lp3856
g3583
(S's\x06\x00\x00\x00Uk\xc5\x82ad'
tRp3857
asbasbasbag49
(g65
g51
NtRp3858
(dp3859
g54
(dp3860
sg63
g3841
sg56
(lp3861
g49
(g70
g51
NtRp3862
(dp3863
g54
(dp3864
sg63
g3858
sg56
(lp3865
g49
(g50
g51
NtRp3866
(dp3867
g54
(dp3868
g62
I1
ssg63
g3862
sg56
(lp3869
I00
asbasbasbag49
(g65
g51
NtRp3870
(dp3871
g54
(dp3872
sg63
g3841
sg56
(lp3873
g49
(g70
g51
NtRp3874
(dp3875
g54
(dp3876
sg63
g3870
sg56
(lp3877
g49
(g50
g51
NtRp3878
(dp3879
g54
(dp3880
g62
I1
ssg63
g3874
sg56
(lp3881
S'/admin/default/edit/ASA/views/layout.html'
p3882
asbasbasbasbasbasbasbag49
(g65
g51
NtRp3883
(dp3884
g54
(dp3885
sg63
g3717
sg56
(lp3886
g49
(g70
g51
NtRp3887
(dp3888
g54
(dp3889
sg63
g3883
sg56
(lp3890
g49
(g50
g51
NtRp3891
(dp3892
g54
(dp3893
g62
I2
ssg63
g3887
sg56
(lp3894
g49
(g58
g51
NtRp3895
(dp3896
g54
(dp3897
g62
I1
ssg63
Nsg56
(lp3898
g49
(g65
g51
NtRp3899
(dp3900
g54
(dp3901
sg63
g3895
sg56
(lp3902
g49
(g70
g51
NtRp3903
(dp3904
g54
(dp3905
sg63
g3899
sg56
(lp3906
g49
(g50
g51
NtRp3907
(dp3908
g54
(dp3909
g62
I1
ssg63
g3903
sg56
(lp3910
g3583
(S's\x0e\x00\x00\x00Arkusz styl\xc3\xb3w'
tRp3911
asbasbasbag49
(g65
g51
NtRp3912
(dp3913
g54
(dp3914
sg63
g3895
sg56
(lp3915
g49
(g70
g51
NtRp3916
(dp3917
g54
(dp3918
sg63
g3912
sg56
(lp3919
g49
(g50
g51
NtRp3920
(dp3921
g54
(dp3922
g62
I1
ssg63
g3916
sg56
(lp3923
I00
asbasbasbag49
(g65
g51
NtRp3924
(dp3925
g54
(dp3926
sg63
g3895
sg56
(lp3927
g49
(g70
g51
NtRp3928
(dp3929
g54
(dp3930
sg63
g3924
sg56
(lp3931
g49
(g50
g51
NtRp3932
(dp3933
g54
(dp3934
g62
I1
ssg63
g3928
sg56
(lp3935
S'/admin/default/edit/ASA/static/base.css'
p3936
asbasbasbasbasbasbasbag49
(g65
g51
NtRp3937
(dp3938
g54
(dp3939
sg63
g3717
sg56
(lp3940
g49
(g70
g51
NtRp3941
(dp3942
g54
(dp3943
sg63
g3937
sg56
(lp3944
g49
(g50
g51
NtRp3945
(dp3946
g54
(dp3947
g62
I2
ssg63
g3941
sg56
(lp3948
g49
(g58
g51
NtRp3949
(dp3950
g54
(dp3951
g62
I1
ssg63
Nsg56
(lp3952
g49
(g65
g51
NtRp3953
(dp3954
g54
(dp3955
sg63
g3949
sg56
(lp3956
g49
(g70
g51
NtRp3957
(dp3958
g54
(dp3959
sg63
g3953
sg56
(lp3960
g49
(g50
g51
NtRp3961
(dp3962
g54
(dp3963
g62
I1
ssg63
g3957
sg56
(lp3964
g3583
(S's\x11\x00\x00\x00Model bazy danych'
tRp3965
asbasbasbag49
(g65
g51
NtRp3966
(dp3967
g54
(dp3968
sg63
g3949
sg56
(lp3969
g49
(g70
g51
NtRp3970
(dp3971
g54
(dp3972
sg63
g3966
sg56
(lp3973
g49
(g50
g51
NtRp3974
(dp3975
g54
(dp3976
g62
I1
ssg63
g3970
sg56
(lp3977
I00
asbasbasbag49
(g65
g51
NtRp3978
(dp3979
g54
(dp3980
sg63
g3949
sg56
(lp3981
g49
(g70
g51
NtRp3982
(dp3983
g54
(dp3984
sg63
g3978
sg56
(lp3985
g49
(g50
g51
NtRp3986
(dp3987
g54
(dp3988
g62
I1
ssg63
g3982
sg56
(lp3989
S'/admin/default/edit/ASA/models/db.py'
p3990
asbasbasbasbasbasbasbag49
(g65
g51
NtRp3991
(dp3992
g54
(dp3993
sg63
g3717
sg56
(lp3994
g49
(g70
g51
NtRp3995
(dp3996
g54
(dp3997
sg63
g3991
sg56
(lp3998
g49
(g50
g51
NtRp3999
(dp4000
g54
(dp4001
g62
I2
ssg63
g3995
sg56
(lp4002
g49
(g58
g51
NtRp4003
(dp4004
g54
(dp4005
g62
I1
ssg63
Nsg56
(lp4006
g49
(g65
g51
NtRp4007
(dp4008
g54
(dp4009
sg63
g4003
sg56
(lp4010
g49
(g70
g51
NtRp4011
(dp4012
g54
(dp4013
sg63
g4007
sg56
(lp4014
g49
(g50
g51
NtRp4015
(dp4016
g54
(dp4017
g62
I1
ssg63
g4011
sg56
(lp4018
g3583
(S's\n\x00\x00\x00Model menu'
tRp4019
asbasbasbag49
(g65
g51
NtRp4020
(dp4021
g54
(dp4022
sg63
g4003
sg56
(lp4023
g49
(g70
g51
NtRp4024
(dp4025
g54
(dp4026
sg63
g4020
sg56
(lp4027
g49
(g50
g51
NtRp4028
(dp4029
g54
(dp4030
g62
I1
ssg63
g4024
sg56
(lp4031
I00
asbasbasbag49
(g65
g51
NtRp4032
(dp4033
g54
(dp4034
sg63
g4003
sg56
(lp4035
g49
(g70
g51
NtRp4036
(dp4037
g54
(dp4038
sg63
g4032
sg56
(lp4039
g49
(g50
g51
NtRp4040
(dp4041
g54
(dp4042
g62
I1
ssg63
g4036
sg56
(lp4043
S'/admin/default/edit/ASA/models/menu.py'
p4044
asbasbasbasbasbasbasbag49
(g65
g51
NtRp4045
(dp4046
g54
(dp4047
sg63
g3717
sg56
(lp4048
g49
(g70
g51
NtRp4049
(dp4050
g54
(dp4051
sg63
g4045
sg56
(lp4052
g49
(g50
g51
NtRp4053
(dp4054
g54
(dp4055
g62
I2
ssg63
g4049
sg56
(lp4056
g49
(g58
g51
NtRp4057
(dp4058
g54
(dp4059
g62
I1
ssg63
Nsg56
(lp4060
g49
(g65
g51
NtRp4061
(dp4062
g54
(dp4063
sg63
g4057
sg56
(lp4064
g49
(g70
g51
NtRp4065
(dp4066
g54
(dp4067
sg63
g4061
sg56
(lp4068
g49
(g50
g51
NtRp4069
(dp4070
g54
(dp4071
g62
I1
ssg63
g4065
sg56
(lp4072
g3583
(S's\x0b\x00\x00\x00Baza danych'
tRp4073
asbasbasbag49
(g65
g51
NtRp4074
(dp4075
g54
(dp4076
sg63
g4057
sg56
(lp4077
g49
(g70
g51
NtRp4078
(dp4079
g54
(dp4080
sg63
g4074
sg56
(lp4081
g49
(g50
g51
NtRp4082
(dp4083
g54
(dp4084
g62
I1
ssg63
g4078
sg56
(lp4085
I00
asbasbasbag49
(g65
g51
NtRp4086
(dp4087
g54
(dp4088
sg63
g4057
sg56
(lp4089
g49
(g70
g51
NtRp4090
(dp4091
g54
(dp4092
sg63
g4086
sg56
(lp4093
g49
(g50
g51
NtRp4094
(dp4095
g54
(dp4096
g62
I1
ssg63
g4090
sg56
(lp4097
S'/ASA/appadmin/index'
p4098
asbasbasbasbasbasbasbasbasbasbasbasbasbasbasbasbasbasbasbag49
(g65
g51
NtRp4099
(dp4100
g54
(dp4101
sg63
g3110
sg56
(lp4102
g49
(g70
g51
NtRp4103
(dp4104
g54
(dp4105
g74
g75
ssg63
g4099
sg56
(lp4106
S'meta'
p4107
asbag49
(g70
g51
NtRp4108
(dp4109
g54
(dp4110
g81
g82
ssg63
g4099
sg56
(lp4111
S':'
asbag49
(g70
g51
NtRp4112
(dp4113
g54
(dp4114
sg63
g4099
sg56
(lp4115
g49
(g50
g51
NtRp4116
(dp4117
g54
(dp4118
g62
I5
ssg63
g4112
sg56
(lp4119
g49
(g58
g51
NtRp4120
(dp4121
g54
(dp4122
g62
I4
ssg63
Nsg56
(lp4123
sbasbasbasbag49
(g65
g51
NtRp4124
(dp4125
g54
(dp4126
sg63
g3110
sg56
(lp4127
g49
(g70
g51
NtRp4128
(dp4129
g54
(dp4130
g74
g75
ssg63
g4124
sg56
(lp4131
S'postprocessing'
p4132
asbag49
(g70
g51
NtRp4133
(dp4134
g54
(dp4135
g81
g82
ssg63
g4124
sg56
(lp4136
S':'
asbag49
(g70
g51
NtRp4137
(dp4138
g54
(dp4139
sg63
g4124
sg56
(lp4140
g49
(g50
g51
NtRp4141
(dp4142
g54
(dp4143
g62
I5
ssg63
g4137
sg56
(lp4144
g49
(g58
g51
NtRp4145
(dp4146
g54
(dp4147
g62
I4
ssg63
Nsg56
(lp4148
sbasbasbasbag49
(g65
g51
NtRp4149
(dp4150
g54
(dp4151
sg63
g3110
sg56
(lp4152
g49
(g70
g51
NtRp4153
(dp4154
g54
(dp4155
g74
g75
ssg63
g4149
sg56
(lp4156
S'session_file'
p4157
asbag49
(g70
g51
NtRp4158
(dp4159
g54
(dp4160
g81
g82
ssg63
g4149
sg56
(lp4161
S':'
asbag49
(g70
g51
NtRp4162
(dp4163
g54
(dp4164
sg63
g4149
sg56
(lp4165
g49
(g50
g51
NtRp4166
(dp4167
g54
(dp4168
g62
I5
ssg63
g4162
sg56
(lp4169
S"<open file 'D:\\UCZELNIA\\ELKA\\tin\\web2py\\web2py_win\\web2py\\applications\\ASA\\sessions\\127.0.0.1-e0241e6a-d76e-4a96-90ff-9a64d2380ff9', mode 'rb+' at 0x05E59A88>"
p4170
asbasbasbag49
(g65
g51
NtRp4171
(dp4172
g54
(dp4173
sg63
g3110
sg56
(lp4174
g49
(g70
g51
NtRp4175
(dp4176
g54
(dp4177
g74
g75
ssg63
g4171
sg56
(lp4178
S'session_filename'
p4179
asbag49
(g70
g51
NtRp4180
(dp4181
g54
(dp4182
g81
g82
ssg63
g4171
sg56
(lp4183
S':'
asbag49
(g70
g51
NtRp4184
(dp4185
g54
(dp4186
sg63
g4171
sg56
(lp4187
g49
(g50
g51
NtRp4188
(dp4189
g54
(dp4190
g62
I5
ssg63
g4184
sg56
(lp4191
S'D:\\UCZELNIA\\ELKA\\tin\\web2py\\web2py_win\\web2py\\applications\\ASA\\sessions\\127.0.0.1-e0241e6a-d76e-4a96-90ff-9a64d2380ff9'
p4192
asbasbasbag49
(g65
g51
NtRp4193
(dp4194
g54
(dp4195
sg63
g3110
sg56
(lp4196
g49
(g70
g51
NtRp4197
(dp4198
g54
(dp4199
g74
g75
ssg63
g4193
sg56
(lp4200
S'session_id'
p4201
asbag49
(g70
g51
NtRp4202
(dp4203
g54
(dp4204
g81
g82
ssg63
g4193
sg56
(lp4205
S':'
asbag49
(g70
g51
NtRp4206
(dp4207
g54
(dp4208
sg63
g4193
sg56
(lp4209
g49
(g50
g51
NtRp4210
(dp4211
g54
(dp4212
g62
I5
ssg63
g4206
sg56
(lp4213
S'127.0.0.1-e0241e6a-d76e-4a96-90ff-9a64d2380ff9'
p4214
asbasbasbag49
(g65
g51
NtRp4215
(dp4216
g54
(dp4217
sg63
g3110
sg56
(lp4218
g49
(g70
g51
NtRp4219
(dp4220
g54
(dp4221
g74
g75
ssg63
g4215
sg56
(lp4222
S'session_id_name'
p4223
asbag49
(g70
g51
NtRp4224
(dp4225
g54
(dp4226
g81
g82
ssg63
g4215
sg56
(lp4227
S':'
asbag49
(g70
g51
NtRp4228
(dp4229
g54
(dp4230
sg63
g4215
sg56
(lp4231
g49
(g50
g51
NtRp4232
(dp4233
g54
(dp4234
g62
I5
ssg63
g4228
sg56
(lp4235
g3167
asbasbasbag49
(g65
g51
NtRp4236
(dp4237
g54
(dp4238
sg63
g3110
sg56
(lp4239
g49
(g70
g51
NtRp4240
(dp4241
g54
(dp4242
g74
g75
ssg63
g4236
sg56
(lp4243
S'session_locked'
p4244
asbag49
(g70
g51
NtRp4245
(dp4246
g54
(dp4247
g81
g82
ssg63
g4236
sg56
(lp4248
S':'
asbag49
(g70
g51
NtRp4249
(dp4250
g54
(dp4251
sg63
g4236
sg56
(lp4252
g49
(g50
g51
NtRp4253
(dp4254
g54
(dp4255
g62
I5
ssg63
g4249
sg56
(lp4256
g1632
asbasbasbag49
(g65
g51
NtRp4257
(dp4258
g54
(dp4259
sg63
g3110
sg56
(lp4260
g49
(g70
g51
NtRp4261
(dp4262
g54
(dp4263
g74
g75
ssg63
g4257
sg56
(lp4264
S'session_new'
p4265
asbag49
(g70
g51
NtRp4266
(dp4267
g54
(dp4268
g81
g82
ssg63
g4257
sg56
(lp4269
S':'
asbag49
(g70
g51
NtRp4270
(dp4271
g54
(dp4272
sg63
g4257
sg56
(lp4273
g49
(g50
g51
NtRp4274
(dp4275
g54
(dp4276
g62
I5
ssg63
g4270
sg56
(lp4277
g92
asbasbasbag49
(g65
g51
NtRp4278
(dp4279
g54
(dp4280
sg63
g3110
sg56
(lp4281
g49
(g70
g51
NtRp4282
(dp4283
g54
(dp4284
g74
g75
ssg63
g4278
sg56
(lp4285
S'status'
p4286
asbag49
(g70
g51
NtRp4287
(dp4288
g54
(dp4289
g81
g82
ssg63
g4278
sg56
(lp4290
S':'
asbag49
(g70
g51
NtRp4291
(dp4292
g54
(dp4293
sg63
g4278
sg56
(lp4294
g49
(g50
g51
NtRp4295
(dp4296
g54
(dp4297
g62
I5
ssg63
g4291
sg56
(lp4298
S'200'
p4299
asbasbasbag49
(g65
g51
NtRp4300
(dp4301
g54
(dp4302
sg63
g3110
sg56
(lp4303
g49
(g70
g51
NtRp4304
(dp4305
g54
(dp4306
g74
g75
ssg63
g4300
sg56
(lp4307
S'subtitle'
p4308
asbag49
(g70
g51
NtRp4309
(dp4310
g54
(dp4311
g81
g82
ssg63
g4300
sg56
(lp4312
S':'
asbag49
(g70
g51
NtRp4313
(dp4314
g54
(dp4315
sg63
g4300
sg56
(lp4316
g49
(g50
g51
NtRp4317
(dp4318
g54
(dp4319
g62
I5
ssg63
g4313
sg56
(lp4320
g3583
(S's\x0e\x00\x00\x00dostosuj mnie!'
tRp4321
asbasbasbag49
(g65
g51
NtRp4322
(dp4323
g54
(dp4324
sg63
g3110
sg56
(lp4325
g49
(g70
g51
NtRp4326
(dp4327
g54
(dp4328
g74
g75
ssg63
g4322
sg56
(lp4329
S'title'
p4330
asbag49
(g70
g51
NtRp4331
(dp4332
g54
(dp4333
g81
g82
ssg63
g4322
sg56
(lp4334
S':'
asbag49
(g70
g51
NtRp4335
(dp4336
g54
(dp4337
sg63
g4322
sg56
(lp4338
g49
(g50
g51
NtRp4339
(dp4340
g54
(dp4341
g62
I5
ssg63
g4335
sg56
(lp4342
g114
asbasbasbag49
(g65
g51
NtRp4343
(dp4344
g54
(dp4345
sg63
g3110
sg56
(lp4346
g49
(g70
g51
NtRp4347
(dp4348
g54
(dp4349
g74
g75
ssg63
g4343
sg56
(lp4350
g2318
asbag49
(g70
g51
NtRp4351
(dp4352
g54
(dp4353
g81
g82
ssg63
g4343
sg56
(lp4354
S':'
asbag49
(g70
g51
NtRp4355
(dp4356
g54
(dp4357
sg63
g4343
sg56
(lp4358
g49
(g50
g51
NtRp4359
(dp4360
g54
(dp4361
g62
I5
ssg63
g4355
sg56
(lp4362
g2331
asbasbasbag49
(g65
g51
NtRp4363
(dp4364
g54
(dp4365
sg63
g3110
sg56
(lp4366
g49
(g70
g51
NtRp4367
(dp4368
g54
(dp4369
g74
g75
ssg63
g4363
sg56
(lp4370
S'view'
p4371
asbag49
(g70
g51
NtRp4372
(dp4373
g54
(dp4374
g81
g82
ssg63
g4363
sg56
(lp4375
S':'
asbag49
(g70
g51
NtRp4376
(dp4377
g54
(dp4378
sg63
g4363
sg56
(lp4379
g49
(g50
g51
NtRp4380
(dp4381
g54
(dp4382
g62
I5
ssg63
g4376
sg56
(lp4383
S'default/add_points.html'
p4384
asbasbasbasbasbsS'locals'
p4385
(dp4386
S'teraz'
p4387
S'datetime.datetime(2012, 1, 9, 16, 27, 41, 782000)'
p4388
sS'i'
S'2'
sS'k'
S'24'
p4389
sS'delta'
p4390
S'datetime.timedelta(0, 15)'
p4391
sS'txt_l'
p4392
S"['1', 'n', '52.21725195742564', '21.015468120313017', '52.217988152682494', '21.015468120313017', '52.21914500628888', '21.015725612378446', '52.220038917982585', '21.016068935132353', '52.221143136998776', '21.016240596509306', '52.2220895885891', '21.016240596509306', '52.22324633536226', '21.01563978168997', '52.22287828283923', '21.014008998608915', '52.222720545109794', '21.012464046216337', ...]"
p4393
sS'id_prac'
p4394
S"'1'"
p4395
sS'txt'
p4396
S"'1?n?52.21725195742564?21.015468120313017?52.2179...160573933157?52.22287828283923?21.009545802808134'"
p4397
sssS'traceback'
p4398
S'Traceback (most recent call last):\n  File "gluon/restricted.py", line 204, in restricted\n  File "D:\\UCZELNIA\\ELKA\\tin\\web2py\\web2py_win\\web2py\\applications\\ASA\\controllers/default.py", line 229, in <module>\n  File "gluon/globals.py", line 172, in <lambda>\n  File "D:\\UCZELNIA\\ELKA\\tin\\web2py\\web2py_win\\web2py\\applications\\ASA\\controllers/default.py", line 202, in add_points\nUnboundLocalError: local variable \'obszar_lat\' referenced before assignment\n'
p4399
s.