(dp1
S'output'
p2
S"<type 'exceptions.KeyError'> 'index'"
p3
sS'layer'
p4
S'D:\\UCZELNIA\\ELKA\\tin\\web2py\\web2py_win\\web2py\\applications\\ASA\\controllers/appadmin.py'
p5
sS'code'
p6
S'# -*- coding: utf-8 -*-\n\n# ##########################################################\n# ## make sure administrator is on localhost\n# ###########################################################\n\nimport os\nimport socket\nimport datetime\nimport copy\nimport gluon.contenttype\nimport gluon.fileutils\n\n# ## critical --- make a copy of the environment\n\nglobal_env = copy.copy(globals())\nglobal_env[\'datetime\'] = datetime\n\nhttp_host = request.env.http_host.split(\':\')[0]\nremote_addr = request.env.remote_addr\ntry:\n    hosts = (http_host, socket.gethostname(),\n             socket.gethostbyname(http_host),\n             \'::1\',\'127.0.0.1\',\'::ffff:127.0.0.1\')\nexcept:\n    hosts = (http_host, )\n\nif request.env.http_x_forwarded_for or request.env.wsgi_url_scheme\\\n     in [\'https\', \'HTTPS\']:\n    session.secure()\nelif (remote_addr not in hosts) and (remote_addr != "127.0.0.1"):\n    raise HTTP(200, T(\'appadmin is disabled because insecure channel\'))\n\nif (request.application==\'admin\' and not session.authorized) or \\\n        (request.application!=\'admin\' and not gluon.fileutils.check_credentials(request)):\n    redirect(URL(\'admin\', \'default\', \'index\',\n                 vars=dict(send=URL(args=request.args,vars=request.vars))))\n\nignore_rw = True\nresponse.view = \'appadmin.html\'\nresponse.menu = [[T(\'design\'), False, URL(\'admin\', \'default\', \'design\',\n                 args=[request.application])], [T(\'db\'), False,\n                 URL(\'index\')], [T(\'state\'), False,\n                 URL(\'state\')], [T(\'cache\'), False,\n                 URL(\'ccache\')]]\n\n# ##########################################################\n# ## auxiliary functions\n# ###########################################################\n\n\ndef get_databases(request):\n    dbs = {}\n    for (key, value) in global_env.items():\n        cond = False\n        try:\n            cond = isinstance(value, GQLDB)\n        except:\n            cond = isinstance(value, DAL)\n        if cond:\n            dbs[key] = value\n    return dbs\n\n\ndatabases = get_databases(None)\n\n\ndef eval_in_global_env(text):\n    exec (\'_ret=%s\' % text, {}, global_env)\n    return global_env[\'_ret\']\n\n\ndef get_database(request):\n    if request.args and request.args[0] in databases:\n        return eval_in_global_env(request.args[0])\n    else:\n        session.flash = T(\'invalid request\')\n        redirect(URL(\'index\'))\n\n\ndef get_table(request):\n    db = get_database(request)\n    if len(request.args) > 1 and request.args[1] in db.tables:\n        return (db, request.args[1])\n    else:\n        session.flash = T(\'invalid request\')\n        redirect(URL(\'index\'))\n\n\ndef get_query(request):\n    try:\n        return eval_in_global_env(request.vars.query)\n    except Exception:\n        return None\n\n\ndef query_by_table_type(tablename,db,request=request):\n    keyed = hasattr(db[tablename],\'_primarykey\')\n    if keyed:\n        firstkey = db[tablename][db[tablename]._primarykey[0]]\n        cond = \'>0\'\n        if firstkey.type in [\'string\', \'text\']:\n            cond = \'!=""\'\n        qry = \'%s.%s.%s%s\' % (request.args[0], request.args[1], firstkey.name, cond)\n    else:\n        qry = \'%s.%s.id>0\' % tuple(request.args[:2])\n    return qry\n\n\n\n# ##########################################################\n# ## list all databases and tables\n# ###########################################################\n\n\ndef index():\n    return dict(databases=databases)\n\n\n# ##########################################################\n# ## insert a new record\n# ###########################################################\n\n\ndef insert():\n    (db, table) = get_table(request)\n    form = SQLFORM(db[table], ignore_rw=ignore_rw)\n    if form.accepts(request, session):\n        response.flash = T(\'new record inserted\')\n    return dict(form=form,table=db[table])\n\n\n# ##########################################################\n# ## list all records in table and insert new record\n# ###########################################################\n\n\ndef download():\n    import os\n    db = get_database(request)\n    return response.download(request,db)\n\ndef csv():\n    import gluon.contenttype\n    response.headers[\'Content-Type\'] = \\\n        gluon.contenttype.contenttype(\'.csv\')\n    db = get_database(request)\n    query = get_query(request)\n    if not query:\n        return None\n    response.headers[\'Content-disposition\'] = \'attachment; filename=%s_%s.csv\'\\\n         % tuple(request.vars.query.split(\'.\')[:2])\n    return str(db(query,ignore_common_filters=True).select())\n\n\ndef import_csv(table, file):\n    table.import_from_csv_file(file)\n\ndef select():\n    import re\n    db = get_database(request)\n    dbname = request.args[0]\n    regex = re.compile(\'(?P<table>\\w+)\\.(?P<field>\\w+)=(?P<value>\\d+)\')\n    if len(request.args)>1 and hasattr(db[request.args[1]],\'_primarykey\'):\n        regex = re.compile(\'(?P<table>\\w+)\\.(?P<field>\\w+)=(?P<value>.+)\')\n    if request.vars.query:\n        match = regex.match(request.vars.query)\n        if match:\n            request.vars.query = \'%s.%s.%s==%s\' % (request.args[0],\n                    match.group(\'table\'), match.group(\'field\'),\n                    match.group(\'value\'))\n    else:\n        request.vars.query = session.last_query\n    query = get_query(request)\n    if request.vars.start:\n        start = int(request.vars.start)\n    else:\n        start = 0\n    nrows = 0\n    stop = start + 100\n    table = None\n    rows = []\n    orderby = request.vars.orderby\n    if orderby:\n        orderby = dbname + \'.\' + orderby\n        if orderby == session.last_orderby:\n            if orderby[0] == \'~\':\n                orderby = orderby[1:]\n            else:\n                orderby = \'~\' + orderby\n    session.last_orderby = orderby\n    session.last_query = request.vars.query\n    form = FORM(TABLE(TR(T(\'Query:\'), \'\', INPUT(_style=\'width:400px\',\n                _name=\'query\', _value=request.vars.query or \'\',\n                requires=IS_NOT_EMPTY(error_message=T("Cannot be empty")))), TR(T(\'Update:\'),\n                INPUT(_name=\'update_check\', _type=\'checkbox\',\n                value=False), INPUT(_style=\'width:400px\',\n                _name=\'update_fields\', _value=request.vars.update_fields\n                 or \'\')), TR(T(\'Delete:\'), INPUT(_name=\'delete_check\',\n                _class=\'delete\', _type=\'checkbox\', value=False), \'\'),\n                TR(\'\', \'\', INPUT(_type=\'submit\', _value=\'submit\'))),\n                _action=URL(r=request,args=request.args))\n    if request.vars.csvfile != None:\n        try:\n            import_csv(db[request.vars.table],\n                       request.vars.csvfile.file)\n            response.flash = T(\'data uploaded\')\n        except Exception, e:\n            response.flash = DIV(T(\'unable to parse csv file\'),PRE(str(e)))\n    if form.accepts(request, formname=None):\n#         regex = re.compile(request.args[0] + \'\\.(?P<table>\\w+)\\.id\\>0\')\n        regex = re.compile(request.args[0] + \'\\.(?P<table>\\w+)\\..+\')\n\n        match = regex.match(form.vars.query.strip())\n        if match:\n            table = match.group(\'table\')\n        try:\n            nrows = db(query).count()\n            if form.vars.update_check and form.vars.update_fields:\n                db(query).update(**eval_in_global_env(\'dict(%s)\'\n                                  % form.vars.update_fields))\n                response.flash = T(\'%s rows updated\', nrows)\n            elif form.vars.delete_check:\n                db(query).delete()\n                response.flash = T(\'%s rows deleted\', nrows)\n            nrows = db(query).count()\n            if orderby:\n                rows = db(query,ignore_common_filters=True).select(limitby=(start, stop), orderby=eval_in_global_env(orderby))\n            else:\n                rows = db(query,ignore_common_filters=True).select(limitby=(start, stop))\n        except Exception, e:\n            (rows, nrows) = ([], 0)\n            response.flash = DIV(T(\'Invalid Query\'),PRE(str(e)))\n    return dict(\n        form=form,\n        table=table,\n        start=start,\n        stop=stop,\n        nrows=nrows,\n        rows=rows,\n        query=request.vars.query,\n        )\n\n\n# ##########################################################\n# ## edit delete one record\n# ###########################################################\n\n\ndef update():\n    (db, table) = get_table(request)\n    keyed = hasattr(db[table],\'_primarykey\')\n    record = None\n    if keyed:\n        key = [f for f in request.vars if f in db[table]._primarykey]\n        if key:\n            record = db(db[table][key[0]] == request.vars[key[0]], ignore_common_filters=True).select().first()\n    else:\n        record = db(db[table].id == request.args(2),ignore_common_filters=True).select().first()\n\n    if not record:\n        qry = query_by_table_type(table, db)\n        session.flash = T(\'record does not exist\')\n        redirect(URL(\'select\', args=request.args[:1],\n                     vars=dict(query=qry)))\n\n    if keyed:\n        for k in db[table]._primarykey:\n            db[table][k].writable=False\n\n    form = SQLFORM(db[table], record, deletable=True, delete_label=T(\'Check to delete\'),\n                   ignore_rw=ignore_rw and not keyed,\n                   linkto=URL(\'select\',\n                   args=request.args[:1]), upload=URL(r=request,\n                   f=\'download\', args=request.args[:1]))\n\n    if form.accepts(request, session):\n        session.flash = T(\'done!\')\n        qry = query_by_table_type(table, db)\n        redirect(URL(\'select\', args=request.args[:1],\n                 vars=dict(query=qry)))\n    return dict(form=form,table=db[table])\n\n\n# ##########################################################\n# ## get global variables\n# ###########################################################\n\n\ndef state():\n    return dict()\n\ndef ccache():\n    form = FORM(\n        P(TAG.BUTTON("Clear CACHE?", _type="submit", _name="yes", _value="yes")),\n        P(TAG.BUTTON("Clear RAM", _type="submit", _name="ram", _value="ram")),\n        P(TAG.BUTTON("Clear DISK", _type="submit", _name="disk", _value="disk")),\n    )\n\n    if form.accepts(request, session):\n        clear_ram = False\n        clear_disk = False\n        session.flash = ""\n        if request.vars.yes:\n            clear_ram = clear_disk = True\n        if request.vars.ram:\n            clear_ram = True\n        if request.vars.disk:\n            clear_disk = True\n\n        if clear_ram:\n            cache.ram.clear()\n            session.flash += "Ram Cleared "\n        if clear_disk:\n            cache.disk.clear()\n            session.flash += "Disk Cleared"\n\n        redirect(URL(r=request))\n\n    try:\n        from guppy import hpy; hp=hpy()\n    except ImportError:\n        hp = False\n\n    import shelve, os, copy, time, math\n    from gluon import portalocker\n\n    ram = {\n        \'entries\': 0,\n        \'bytes\': 0,\n        \'objects\': 0,\n        \'hits\': 0,\n        \'misses\': 0,\n        \'ratio\': 0,\n        \'oldest\': time.time(),\n        \'keys\': []\n    }\n    disk = copy.copy(ram)\n    total = copy.copy(ram)\n    disk[\'keys\'] = []\n    total[\'keys\'] = []\n\n    def GetInHMS(seconds):\n        hours = math.floor(seconds / 3600)\n        seconds -= hours * 3600\n        minutes = math.floor(seconds / 60)\n        seconds -= minutes * 60\n        seconds = math.floor(seconds)\n\n        return (hours, minutes, seconds)\n\n    for key, value in cache.ram.storage.items():\n        if isinstance(value, dict):\n            ram[\'hits\'] = value[\'hit_total\'] - value[\'misses\']\n            ram[\'misses\'] = value[\'misses\']\n            try:\n                ram[\'ratio\'] = ram[\'hits\'] * 100 / value[\'hit_total\']\n            except (KeyError, ZeroDivisionError):\n                ram[\'ratio\'] = 0\n        else:\n            if hp:\n                ram[\'bytes\'] += hp.iso(value[1]).size\n                ram[\'objects\'] += hp.iso(value[1]).count\n            ram[\'entries\'] += 1\n            if value[0] < ram[\'oldest\']:\n                ram[\'oldest\'] = value[0]\n            ram[\'keys\'].append((key, GetInHMS(time.time() - value[0])))\n\n    locker = open(os.path.join(request.folder,\n                                        \'cache/cache.lock\'), \'a\')\n    portalocker.lock(locker, portalocker.LOCK_EX)\n    disk_storage = shelve.open(os.path.join(request.folder, \'cache/cache.shelve\'))\n    try:\n        for key, value in disk_storage.items():\n            if isinstance(value, dict):\n                disk[\'hits\'] = value[\'hit_total\'] - value[\'misses\']\n                disk[\'misses\'] = value[\'misses\']\n                try:\n                    disk[\'ratio\'] = disk[\'hits\'] * 100 / value[\'hit_total\']\n                except (KeyError, ZeroDivisionError):\n                    disk[\'ratio\'] = 0\n            else:\n                if hp:\n                    disk[\'bytes\'] += hp.iso(value[1]).size\n                    disk[\'objects\'] += hp.iso(value[1]).count\n                disk[\'entries\'] += 1\n                if value[0] < disk[\'oldest\']:\n                    disk[\'oldest\'] = value[0]\n                disk[\'keys\'].append((key, GetInHMS(time.time() - value[0])))\n\n    finally:\n        portalocker.unlock(locker)\n        locker.close()\n        disk_storage.close()\n\n    total[\'entries\'] = ram[\'entries\'] + disk[\'entries\']\n    total[\'bytes\'] = ram[\'bytes\'] + disk[\'bytes\']\n    total[\'objects\'] = ram[\'objects\'] + disk[\'objects\']\n    total[\'hits\'] = ram[\'hits\'] + disk[\'hits\']\n    total[\'misses\'] = ram[\'misses\'] + disk[\'misses\']\n    total[\'keys\'] = ram[\'keys\'] + disk[\'keys\']\n    try:\n        total[\'ratio\'] = total[\'hits\'] * 100 / (total[\'hits\'] + total[\'misses\'])\n    except (KeyError, ZeroDivisionError):\n        total[\'ratio\'] = 0\n\n    if disk[\'oldest\'] < ram[\'oldest\']:\n        total[\'oldest\'] = disk[\'oldest\']\n    else:\n        total[\'oldest\'] = ram[\'oldest\']\n\n    ram[\'oldest\'] = GetInHMS(time.time() - ram[\'oldest\'])\n    disk[\'oldest\'] = GetInHMS(time.time() - disk[\'oldest\'])\n    total[\'oldest\'] = GetInHMS(time.time() - total[\'oldest\'])\n\n    def key_table(keys):\n        return TABLE(\n            TR(TD(B(\'Key\')), TD(B(\'Time in Cache (h:m:s)\'))),\n            *[TR(TD(k[0]), TD(\'%02d:%02d:%02d\' % k[1])) for k in keys],\n            **dict(_class=\'cache-keys\',\n                   _style="border-collapse: separate; border-spacing: .5em;"))\n\n    ram[\'keys\'] = key_table(ram[\'keys\'])\n    disk[\'keys\'] = key_table(disk[\'keys\'])\n    total[\'keys\'] = key_table(total[\'keys\'])\n\n    return dict(form=form, total=total,\n                ram=ram, disk=disk, object_stats=hp != False)\n\n\n\n\nresponse._vars=response._caller(select)\n'
p7
sS'snapshot'
p8
(dp9
S'exception'
p10
(dp11
S'__hash__'
p12
S"<method-wrapper '__hash__' of exceptions.KeyError object at 0x06611DF0>"
p13
sS'__setattr__'
p14
S"<method-wrapper '__setattr__' of exceptions.KeyError object at 0x06611DF0>"
p15
sS'__reduce_ex__'
p16
S'<built-in method __reduce_ex__ of exceptions.KeyError object at 0x06611DF0>'
p17
sS'__getslice__'
p18
S"<method-wrapper '__getslice__' of exceptions.KeyError object at 0x06611DF0>"
p19
sS'__getitem__'
p20
S"<method-wrapper '__getitem__' of exceptions.KeyError object at 0x06611DF0>"
p21
sS'__setstate__'
p22
S'<built-in method __setstate__ of exceptions.KeyError object at 0x06611DF0>'
p23
sS'__reduce__'
p24
S'<built-in method __reduce__ of exceptions.KeyError object at 0x06611DF0>'
p25
sS'__str__'
p26
S"<method-wrapper '__str__' of exceptions.KeyError object at 0x06611DF0>"
p27
sS'args'
p28
S"('index',)"
p29
sS'__getattribute__'
p30
S"<method-wrapper '__getattribute__' of exceptions.KeyError object at 0x06611DF0>"
p31
sS'__class__'
p32
S"<type 'exceptions.KeyError'>"
p33
sS'__delattr__'
p34
S"<method-wrapper '__delattr__' of exceptions.KeyError object at 0x06611DF0>"
p35
sS'__repr__'
p36
S"<method-wrapper '__repr__' of exceptions.KeyError object at 0x06611DF0>"
p37
sS'__dict__'
p38
S'{}'
p39
sS'__doc__'
p40
S"'Mapping key not found.'"
p41
sS'__init__'
p42
S"<method-wrapper '__init__' of exceptions.KeyError object at 0x06611DF0>"
p43
sS'__new__'
p44
S'<built-in method __new__ of type object at 0x1E1CDFB8>'
p45
ssS'evalue'
p46
S"'index'"
p47
sS'request'
p48
ccopy_reg
_reconstructor
p49
(cgluon.html
BEAUTIFY
p50
c__builtin__
object
p51
NtRp52
(dp53
S'attributes'
p54
(dp55
sS'components'
p56
(lp57
g49
(cgluon.html
TABLE
p58
g51
NtRp59
(dp60
g54
(dp61
S'level'
p62
I5
ssS'parent'
p63
Nsg56
(lp64
g49
(cgluon.html
TR
p65
g51
NtRp66
(dp67
g54
(dp68
sg63
g59
sg56
(lp69
g49
(cgluon.html
TD
p70
g51
NtRp71
(dp72
g54
(dp73
S'_style'
p74
S'font-weight:bold;vertical-align:top'
p75
ssg63
g66
sg56
(lp76
S'ajax'
p77
asbag49
(g70
g51
NtRp78
(dp79
g54
(dp80
S'_valign'
p81
S'top'
p82
ssg63
g66
sg56
(lp83
S':'
asbag49
(g70
g51
NtRp84
(dp85
g54
(dp86
sg63
g66
sg56
(lp87
g49
(g50
g51
NtRp88
(dp89
g54
(dp90
g62
I5
ssg63
g84
sg56
(lp91
S'False'
p92
asbasbasbag49
(g65
g51
NtRp93
(dp94
g54
(dp95
sg63
g59
sg56
(lp96
g49
(g70
g51
NtRp97
(dp98
g54
(dp99
g74
g75
ssg63
g93
sg56
(lp100
S'application'
p101
asbag49
(g70
g51
NtRp102
(dp103
g54
(dp104
g81
g82
ssg63
g93
sg56
(lp105
S':'
asbag49
(g70
g51
NtRp106
(dp107
g54
(dp108
sg63
g93
sg56
(lp109
g49
(g50
g51
NtRp110
(dp111
g54
(dp112
g62
I5
ssg63
g106
sg56
(lp113
S'ASA'
p114
asbasbasbag49
(g65
g51
NtRp115
(dp116
g54
(dp117
sg63
g59
sg56
(lp118
g49
(g70
g51
NtRp119
(dp120
g54
(dp121
g74
g75
ssg63
g115
sg56
(lp122
g28
asbag49
(g70
g51
NtRp123
(dp124
g54
(dp125
g81
g82
ssg63
g115
sg56
(lp126
S':'
asbag49
(g70
g51
NtRp127
(dp128
g54
(dp129
sg63
g115
sg56
(lp130
g49
(g50
g51
NtRp131
(dp132
g54
(dp133
g62
I5
ssg63
g127
sg56
(lp134
g49
(g58
g51
NtRp135
(dp136
g54
(dp137
g62
I4
ssg63
Nsg56
(lp138
g49
(g65
g51
NtRp139
(dp140
g54
(dp141
sg63
g135
sg56
(lp142
g49
(g70
g51
NtRp143
(dp144
g54
(dp145
sg63
g139
sg56
(lp146
g49
(g50
g51
NtRp147
(dp148
g54
(dp149
g62
I4
ssg63
g143
sg56
(lp150
S'db'
p151
asbasbasbag49
(g65
g51
NtRp152
(dp153
g54
(dp154
sg63
g135
sg56
(lp155
g49
(g70
g51
NtRp156
(dp157
g54
(dp158
sg63
g152
sg56
(lp159
g49
(g50
g51
NtRp160
(dp161
g54
(dp162
g62
I4
ssg63
g156
sg56
(lp163
S'index'
p164
asbasbasbasbasbasbasbag49
(g65
g51
NtRp165
(dp166
g54
(dp167
sg63
g59
sg56
(lp168
g49
(g70
g51
NtRp169
(dp170
g54
(dp171
g74
g75
ssg63
g165
sg56
(lp172
S'body'
p173
asbag49
(g70
g51
NtRp174
(dp175
g54
(dp176
g81
g82
ssg63
g165
sg56
(lp177
S':'
asbag49
(g70
g51
NtRp178
(dp179
g54
(dp180
sg63
g165
sg56
(lp181
g49
(g50
g51
NtRp182
(dp183
g54
(dp184
g62
I5
ssg63
g178
sg56
(lp185
S'<cStringIO.StringO object at 0x06D60760>'
p186
asbasbasbag49
(g65
g51
NtRp187
(dp188
g54
(dp189
sg63
g59
sg56
(lp190
g49
(g70
g51
NtRp191
(dp192
g54
(dp193
g74
g75
ssg63
g187
sg56
(lp194
S'client'
p195
asbag49
(g70
g51
NtRp196
(dp197
g54
(dp198
g81
g82
ssg63
g187
sg56
(lp199
S':'
asbag49
(g70
g51
NtRp200
(dp201
g54
(dp202
sg63
g187
sg56
(lp203
g49
(g50
g51
NtRp204
(dp205
g54
(dp206
g62
I5
ssg63
g200
sg56
(lp207
S'127.0.0.1'
p208
asbasbasbag49
(g65
g51
NtRp209
(dp210
g54
(dp211
sg63
g59
sg56
(lp212
g49
(g70
g51
NtRp213
(dp214
g54
(dp215
g74
g75
ssg63
g209
sg56
(lp216
S'controller'
p217
asbag49
(g70
g51
NtRp218
(dp219
g54
(dp220
g81
g82
ssg63
g209
sg56
(lp221
S':'
asbag49
(g70
g51
NtRp222
(dp223
g54
(dp224
sg63
g209
sg56
(lp225
g49
(g50
g51
NtRp226
(dp227
g54
(dp228
g62
I5
ssg63
g222
sg56
(lp229
S'appadmin'
p230
asbasbasbag49
(g65
g51
NtRp231
(dp232
g54
(dp233
sg63
g59
sg56
(lp234
g49
(g70
g51
NtRp235
(dp236
g54
(dp237
g74
g75
ssg63
g231
sg56
(lp238
S'cookies'
p239
asbag49
(g70
g51
NtRp240
(dp241
g54
(dp242
g81
g82
ssg63
g231
sg56
(lp243
S':'
asbag49
(g70
g51
NtRp244
(dp245
g54
(dp246
sg63
g231
sg56
(lp247
g49
(g50
g51
NtRp248
(dp249
g54
(dp250
g62
I5
ssg63
g244
sg56
(lp251
g49
(g58
g51
NtRp252
(dp253
g54
(dp254
g62
I4
ssg63
Nsg56
(lp255
g49
(g65
g51
NtRp256
(dp257
g54
(dp258
sg63
g252
sg56
(lp259
g49
(g70
g51
NtRp260
(dp261
g54
(dp262
g74
g75
ssg63
g256
sg56
(lp263
S'session_id_admin'
p264
asbag49
(g70
g51
NtRp265
(dp266
g54
(dp267
g81
g82
ssg63
g256
sg56
(lp268
S':'
asbag49
(g70
g51
NtRp269
(dp270
g54
(dp271
sg63
g256
sg56
(lp272
g49
(g50
g51
NtRp273
(dp274
g54
(dp275
g62
I4
ssg63
g269
sg56
(lp276
g49
(g58
g51
NtRp277
(dp278
g54
(dp279
g62
I3
ssg63
Nsg56
(lp280
g49
(g65
g51
NtRp281
(dp282
g54
(dp283
sg63
g277
sg56
(lp284
g49
(g70
g51
NtRp285
(dp286
g54
(dp287
g74
g75
ssg63
g281
sg56
(lp288
S'comment'
p289
asbag49
(g70
g51
NtRp290
(dp291
g54
(dp292
g81
g82
ssg63
g281
sg56
(lp293
S':'
asbag49
(g70
g51
NtRp294
(dp295
g54
(dp296
sg63
g281
sg56
(lp297
g49
(g50
g51
NtRp298
(dp299
g54
(dp300
g62
I3
ssg63
g294
sg56
(lp301
S''
asbasbasbag49
(g65
g51
NtRp302
(dp303
g54
(dp304
sg63
g277
sg56
(lp305
g49
(g70
g51
NtRp306
(dp307
g54
(dp308
g74
g75
ssg63
g302
sg56
(lp309
S'domain'
p310
asbag49
(g70
g51
NtRp311
(dp312
g54
(dp313
g81
g82
ssg63
g302
sg56
(lp314
S':'
asbag49
(g70
g51
NtRp315
(dp316
g54
(dp317
sg63
g302
sg56
(lp318
g49
(g50
g51
NtRp319
(dp320
g54
(dp321
g62
I3
ssg63
g315
sg56
(lp322
S''
asbasbasbag49
(g65
g51
NtRp323
(dp324
g54
(dp325
sg63
g277
sg56
(lp326
g49
(g70
g51
NtRp327
(dp328
g54
(dp329
g74
g75
ssg63
g323
sg56
(lp330
S'expires'
p331
asbag49
(g70
g51
NtRp332
(dp333
g54
(dp334
g81
g82
ssg63
g323
sg56
(lp335
S':'
asbag49
(g70
g51
NtRp336
(dp337
g54
(dp338
sg63
g323
sg56
(lp339
g49
(g50
g51
NtRp340
(dp341
g54
(dp342
g62
I3
ssg63
g336
sg56
(lp343
S''
asbasbasbag49
(g65
g51
NtRp344
(dp345
g54
(dp346
sg63
g277
sg56
(lp347
g49
(g70
g51
NtRp348
(dp349
g54
(dp350
g74
g75
ssg63
g344
sg56
(lp351
S'max-age'
p352
asbag49
(g70
g51
NtRp353
(dp354
g54
(dp355
g81
g82
ssg63
g344
sg56
(lp356
S':'
asbag49
(g70
g51
NtRp357
(dp358
g54
(dp359
sg63
g344
sg56
(lp360
g49
(g50
g51
NtRp361
(dp362
g54
(dp363
g62
I3
ssg63
g357
sg56
(lp364
S''
asbasbasbag49
(g65
g51
NtRp365
(dp366
g54
(dp367
sg63
g277
sg56
(lp368
g49
(g70
g51
NtRp369
(dp370
g54
(dp371
g74
g75
ssg63
g365
sg56
(lp372
S'path'
p373
asbag49
(g70
g51
NtRp374
(dp375
g54
(dp376
g81
g82
ssg63
g365
sg56
(lp377
S':'
asbag49
(g70
g51
NtRp378
(dp379
g54
(dp380
sg63
g365
sg56
(lp381
g49
(g50
g51
NtRp382
(dp383
g54
(dp384
g62
I3
ssg63
g378
sg56
(lp385
S''
asbasbasbag49
(g65
g51
NtRp386
(dp387
g54
(dp388
sg63
g277
sg56
(lp389
g49
(g70
g51
NtRp390
(dp391
g54
(dp392
g74
g75
ssg63
g386
sg56
(lp393
S'secure'
p394
asbag49
(g70
g51
NtRp395
(dp396
g54
(dp397
g81
g82
ssg63
g386
sg56
(lp398
S':'
asbag49
(g70
g51
NtRp399
(dp400
g54
(dp401
sg63
g386
sg56
(lp402
g49
(g50
g51
NtRp403
(dp404
g54
(dp405
g62
I3
ssg63
g399
sg56
(lp406
S''
asbasbasbag49
(g65
g51
NtRp407
(dp408
g54
(dp409
sg63
g277
sg56
(lp410
g49
(g70
g51
NtRp411
(dp412
g54
(dp413
g74
g75
ssg63
g407
sg56
(lp414
S'version'
p415
asbag49
(g70
g51
NtRp416
(dp417
g54
(dp418
g81
g82
ssg63
g407
sg56
(lp419
S':'
asbag49
(g70
g51
NtRp420
(dp421
g54
(dp422
sg63
g407
sg56
(lp423
g49
(g50
g51
NtRp424
(dp425
g54
(dp426
g62
I3
ssg63
g420
sg56
(lp427
S''
asbasbasbasbasbasbasbag49
(g65
g51
NtRp428
(dp429
g54
(dp430
sg63
g252
sg56
(lp431
g49
(g70
g51
NtRp432
(dp433
g54
(dp434
g74
g75
ssg63
g428
sg56
(lp435
S'session_id_asa'
p436
asbag49
(g70
g51
NtRp437
(dp438
g54
(dp439
g81
g82
ssg63
g428
sg56
(lp440
S':'
asbag49
(g70
g51
NtRp441
(dp442
g54
(dp443
sg63
g428
sg56
(lp444
g49
(g50
g51
NtRp445
(dp446
g54
(dp447
g62
I4
ssg63
g441
sg56
(lp448
g49
(g58
g51
NtRp449
(dp450
g54
(dp451
g62
I3
ssg63
Nsg56
(lp452
g49
(g65
g51
NtRp453
(dp454
g54
(dp455
sg63
g449
sg56
(lp456
g49
(g70
g51
NtRp457
(dp458
g54
(dp459
g74
g75
ssg63
g453
sg56
(lp460
g289
asbag49
(g70
g51
NtRp461
(dp462
g54
(dp463
g81
g82
ssg63
g453
sg56
(lp464
S':'
asbag49
(g70
g51
NtRp465
(dp466
g54
(dp467
sg63
g453
sg56
(lp468
g49
(g50
g51
NtRp469
(dp470
g54
(dp471
g62
I3
ssg63
g465
sg56
(lp472
S''
asbasbasbag49
(g65
g51
NtRp473
(dp474
g54
(dp475
sg63
g449
sg56
(lp476
g49
(g70
g51
NtRp477
(dp478
g54
(dp479
g74
g75
ssg63
g473
sg56
(lp480
g310
asbag49
(g70
g51
NtRp481
(dp482
g54
(dp483
g81
g82
ssg63
g473
sg56
(lp484
S':'
asbag49
(g70
g51
NtRp485
(dp486
g54
(dp487
sg63
g473
sg56
(lp488
g49
(g50
g51
NtRp489
(dp490
g54
(dp491
g62
I3
ssg63
g485
sg56
(lp492
S''
asbasbasbag49
(g65
g51
NtRp493
(dp494
g54
(dp495
sg63
g449
sg56
(lp496
g49
(g70
g51
NtRp497
(dp498
g54
(dp499
g74
g75
ssg63
g493
sg56
(lp500
g331
asbag49
(g70
g51
NtRp501
(dp502
g54
(dp503
g81
g82
ssg63
g493
sg56
(lp504
S':'
asbag49
(g70
g51
NtRp505
(dp506
g54
(dp507
sg63
g493
sg56
(lp508
g49
(g50
g51
NtRp509
(dp510
g54
(dp511
g62
I3
ssg63
g505
sg56
(lp512
S''
asbasbasbag49
(g65
g51
NtRp513
(dp514
g54
(dp515
sg63
g449
sg56
(lp516
g49
(g70
g51
NtRp517
(dp518
g54
(dp519
g74
g75
ssg63
g513
sg56
(lp520
g352
asbag49
(g70
g51
NtRp521
(dp522
g54
(dp523
g81
g82
ssg63
g513
sg56
(lp524
S':'
asbag49
(g70
g51
NtRp525
(dp526
g54
(dp527
sg63
g513
sg56
(lp528
g49
(g50
g51
NtRp529
(dp530
g54
(dp531
g62
I3
ssg63
g525
sg56
(lp532
S''
asbasbasbag49
(g65
g51
NtRp533
(dp534
g54
(dp535
sg63
g449
sg56
(lp536
g49
(g70
g51
NtRp537
(dp538
g54
(dp539
g74
g75
ssg63
g533
sg56
(lp540
g373
asbag49
(g70
g51
NtRp541
(dp542
g54
(dp543
g81
g82
ssg63
g533
sg56
(lp544
S':'
asbag49
(g70
g51
NtRp545
(dp546
g54
(dp547
sg63
g533
sg56
(lp548
g49
(g50
g51
NtRp549
(dp550
g54
(dp551
g62
I3
ssg63
g545
sg56
(lp552
S''
asbasbasbag49
(g65
g51
NtRp553
(dp554
g54
(dp555
sg63
g449
sg56
(lp556
g49
(g70
g51
NtRp557
(dp558
g54
(dp559
g74
g75
ssg63
g553
sg56
(lp560
g394
asbag49
(g70
g51
NtRp561
(dp562
g54
(dp563
g81
g82
ssg63
g553
sg56
(lp564
S':'
asbag49
(g70
g51
NtRp565
(dp566
g54
(dp567
sg63
g553
sg56
(lp568
g49
(g50
g51
NtRp569
(dp570
g54
(dp571
g62
I3
ssg63
g565
sg56
(lp572
S''
asbasbasbag49
(g65
g51
NtRp573
(dp574
g54
(dp575
sg63
g449
sg56
(lp576
g49
(g70
g51
NtRp577
(dp578
g54
(dp579
g74
g75
ssg63
g573
sg56
(lp580
g415
asbag49
(g70
g51
NtRp581
(dp582
g54
(dp583
g81
g82
ssg63
g573
sg56
(lp584
S':'
asbag49
(g70
g51
NtRp585
(dp586
g54
(dp587
sg63
g573
sg56
(lp588
g49
(g50
g51
NtRp589
(dp590
g54
(dp591
g62
I3
ssg63
g585
sg56
(lp592
S''
asbasbasbasbasbasbasbag49
(g65
g51
NtRp593
(dp594
g54
(dp595
sg63
g252
sg56
(lp596
g49
(g70
g51
NtRp597
(dp598
g54
(dp599
g74
g75
ssg63
g593
sg56
(lp600
S'session_id_welcome'
p601
asbag49
(g70
g51
NtRp602
(dp603
g54
(dp604
g81
g82
ssg63
g593
sg56
(lp605
S':'
asbag49
(g70
g51
NtRp606
(dp607
g54
(dp608
sg63
g593
sg56
(lp609
g49
(g50
g51
NtRp610
(dp611
g54
(dp612
g62
I4
ssg63
g606
sg56
(lp613
g49
(g58
g51
NtRp614
(dp615
g54
(dp616
g62
I3
ssg63
Nsg56
(lp617
g49
(g65
g51
NtRp618
(dp619
g54
(dp620
sg63
g614
sg56
(lp621
g49
(g70
g51
NtRp622
(dp623
g54
(dp624
g74
g75
ssg63
g618
sg56
(lp625
g289
asbag49
(g70
g51
NtRp626
(dp627
g54
(dp628
g81
g82
ssg63
g618
sg56
(lp629
S':'
asbag49
(g70
g51
NtRp630
(dp631
g54
(dp632
sg63
g618
sg56
(lp633
g49
(g50
g51
NtRp634
(dp635
g54
(dp636
g62
I3
ssg63
g630
sg56
(lp637
S''
asbasbasbag49
(g65
g51
NtRp638
(dp639
g54
(dp640
sg63
g614
sg56
(lp641
g49
(g70
g51
NtRp642
(dp643
g54
(dp644
g74
g75
ssg63
g638
sg56
(lp645
g310
asbag49
(g70
g51
NtRp646
(dp647
g54
(dp648
g81
g82
ssg63
g638
sg56
(lp649
S':'
asbag49
(g70
g51
NtRp650
(dp651
g54
(dp652
sg63
g638
sg56
(lp653
g49
(g50
g51
NtRp654
(dp655
g54
(dp656
g62
I3
ssg63
g650
sg56
(lp657
S''
asbasbasbag49
(g65
g51
NtRp658
(dp659
g54
(dp660
sg63
g614
sg56
(lp661
g49
(g70
g51
NtRp662
(dp663
g54
(dp664
g74
g75
ssg63
g658
sg56
(lp665
g331
asbag49
(g70
g51
NtRp666
(dp667
g54
(dp668
g81
g82
ssg63
g658
sg56
(lp669
S':'
asbag49
(g70
g51
NtRp670
(dp671
g54
(dp672
sg63
g658
sg56
(lp673
g49
(g50
g51
NtRp674
(dp675
g54
(dp676
g62
I3
ssg63
g670
sg56
(lp677
S''
asbasbasbag49
(g65
g51
NtRp678
(dp679
g54
(dp680
sg63
g614
sg56
(lp681
g49
(g70
g51
NtRp682
(dp683
g54
(dp684
g74
g75
ssg63
g678
sg56
(lp685
g352
asbag49
(g70
g51
NtRp686
(dp687
g54
(dp688
g81
g82
ssg63
g678
sg56
(lp689
S':'
asbag49
(g70
g51
NtRp690
(dp691
g54
(dp692
sg63
g678
sg56
(lp693
g49
(g50
g51
NtRp694
(dp695
g54
(dp696
g62
I3
ssg63
g690
sg56
(lp697
S''
asbasbasbag49
(g65
g51
NtRp698
(dp699
g54
(dp700
sg63
g614
sg56
(lp701
g49
(g70
g51
NtRp702
(dp703
g54
(dp704
g74
g75
ssg63
g698
sg56
(lp705
g373
asbag49
(g70
g51
NtRp706
(dp707
g54
(dp708
g81
g82
ssg63
g698
sg56
(lp709
S':'
asbag49
(g70
g51
NtRp710
(dp711
g54
(dp712
sg63
g698
sg56
(lp713
g49
(g50
g51
NtRp714
(dp715
g54
(dp716
g62
I3
ssg63
g710
sg56
(lp717
S''
asbasbasbag49
(g65
g51
NtRp718
(dp719
g54
(dp720
sg63
g614
sg56
(lp721
g49
(g70
g51
NtRp722
(dp723
g54
(dp724
g74
g75
ssg63
g718
sg56
(lp725
g394
asbag49
(g70
g51
NtRp726
(dp727
g54
(dp728
g81
g82
ssg63
g718
sg56
(lp729
S':'
asbag49
(g70
g51
NtRp730
(dp731
g54
(dp732
sg63
g718
sg56
(lp733
g49
(g50
g51
NtRp734
(dp735
g54
(dp736
g62
I3
ssg63
g730
sg56
(lp737
S''
asbasbasbag49
(g65
g51
NtRp738
(dp739
g54
(dp740
sg63
g614
sg56
(lp741
g49
(g70
g51
NtRp742
(dp743
g54
(dp744
g74
g75
ssg63
g738
sg56
(lp745
g415
asbag49
(g70
g51
NtRp746
(dp747
g54
(dp748
g81
g82
ssg63
g738
sg56
(lp749
S':'
asbag49
(g70
g51
NtRp750
(dp751
g54
(dp752
sg63
g738
sg56
(lp753
g49
(g50
g51
NtRp754
(dp755
g54
(dp756
g62
I3
ssg63
g750
sg56
(lp757
S''
asbasbasbasbasbasbasbasbasbasbasbag49
(g65
g51
NtRp758
(dp759
g54
(dp760
sg63
g59
sg56
(lp761
g49
(g70
g51
NtRp762
(dp763
g54
(dp764
g74
g75
ssg63
g758
sg56
(lp765
S'env'
p766
asbag49
(g70
g51
NtRp767
(dp768
g54
(dp769
g81
g82
ssg63
g758
sg56
(lp770
S':'
asbag49
(g70
g51
NtRp771
(dp772
g54
(dp773
sg63
g758
sg56
(lp774
g49
(g50
g51
NtRp775
(dp776
g54
(dp777
g62
I5
ssg63
g771
sg56
(lp778
g49
(g58
g51
NtRp779
(dp780
g54
(dp781
g62
I4
ssg63
Nsg56
(lp782
g49
(g65
g51
NtRp783
(dp784
g54
(dp785
sg63
g779
sg56
(lp786
g49
(g70
g51
NtRp787
(dp788
g54
(dp789
g74
g75
ssg63
g783
sg56
(lp790
S'app_folders'
p791
asbag49
(g70
g51
NtRp792
(dp793
g54
(dp794
g81
g82
ssg63
g783
sg56
(lp795
S':'
asbag49
(g70
g51
NtRp796
(dp797
g54
(dp798
sg63
g783
sg56
(lp799
g49
(g50
g51
NtRp800
(dp801
g54
(dp802
g62
I4
ssg63
g796
sg56
(lp803
S"set(['D:\\\\UCZELNIA\\\\ELKA\\\\tin\\\\web2py\\\\web2py_win\\\\web2py\\\\applications\\\\welcome\\\\', 'D:\\\\UCZELNIA\\\\ELKA\\\\tin\\\\web2py\\\\web2py_win\\\\web2py\\\\applications\\\\admin\\\\', 'D:\\\\UCZELNIA\\\\ELKA\\\\tin\\\\web2py\\\\web2py_win\\\\web2py\\\\applications\\\\ASA\\\\'])"
p804
asbasbasbag49
(g65
g51
NtRp805
(dp806
g54
(dp807
sg63
g779
sg56
(lp808
g49
(g70
g51
NtRp809
(dp810
g54
(dp811
g74
g75
ssg63
g805
sg56
(lp812
S'applications_parent'
p813
asbag49
(g70
g51
NtRp814
(dp815
g54
(dp816
g81
g82
ssg63
g805
sg56
(lp817
S':'
asbag49
(g70
g51
NtRp818
(dp819
g54
(dp820
sg63
g805
sg56
(lp821
g49
(g50
g51
NtRp822
(dp823
g54
(dp824
g62
I4
ssg63
g818
sg56
(lp825
S'D:\\UCZELNIA\\ELKA\\tin\\web2py\\web2py_win\\web2py'
p826
asbasbasbag49
(g65
g51
NtRp827
(dp828
g54
(dp829
sg63
g779
sg56
(lp830
g49
(g70
g51
NtRp831
(dp832
g54
(dp833
g74
g75
ssg63
g827
sg56
(lp834
S'cmd_args'
p835
asbag49
(g70
g51
NtRp836
(dp837
g54
(dp838
g81
g82
ssg63
g827
sg56
(lp839
S':'
asbag49
(g70
g51
NtRp840
(dp841
g54
(dp842
sg63
g827
sg56
(lp843
g49
(g50
g51
NtRp844
(dp845
g54
(dp846
g62
I4
ssg63
g840
sg56
(lp847
g49
(g58
g51
NtRp848
(dp849
g54
(dp850
g62
I3
ssg63
Nsg56
(lp851
sbasbasbasbag49
(g65
g51
NtRp852
(dp853
g54
(dp854
sg63
g779
sg56
(lp855
g49
(g70
g51
NtRp856
(dp857
g54
(dp858
g74
g75
ssg63
g852
sg56
(lp859
S'cmd_options'
p860
asbag49
(g70
g51
NtRp861
(dp862
g54
(dp863
g81
g82
ssg63
g852
sg56
(lp864
S':'
asbag49
(g70
g51
NtRp865
(dp866
g54
(dp867
sg63
g852
sg56
(lp868
g49
(g50
g51
NtRp869
(dp870
g54
(dp871
g62
I4
ssg63
g865
sg56
(lp872
S"<Values at 0x2cfc300: {'verbose': False, 'ip': '127.0.0.1', 'shutdown_timeout': 5, 'taskbar': False, 'nocron': False, 'pid_filename': 'httpserver.pid', 'maxthreads': None, 'softcron': False, 'server_name': 'hyden-PC', 'bpython': False, 'nogui': False, 'port': 8000, 'extcron': False, 'debuglevel': 30, 'test': None, 'folder': 'D:\\\\UCZELNIA\\\\ELKA\\\\tin\\\\web2py\\\\web2py_win\\\\web2py', 'config': '', 'import_models': False, 'winservice': '', 'shell': None, 'run': '', 'log_filename': 'httpserver.log', 'args': [''], 'socket_timeout': 1, 'ssl_ca_certificate': None, 'scheduler': None, 'profiler_filename': None, 'ssl_private_key': '', 'password': '<ask>', 'request_queue_size': 5, 'ssl_certificate': '', 'cronjob': False, 'numthreads': None, 'quiet': False, 'interfaces': None, 'minthreads': None, 'timeout': 10, 'plain': False, 'nobanner': False}>"
p873
asbasbasbag49
(g65
g51
NtRp874
(dp875
g54
(dp876
sg63
g779
sg56
(lp877
g49
(g70
g51
NtRp878
(dp879
g54
(dp880
g74
g75
ssg63
g874
sg56
(lp881
S'db_sessions'
p882
asbag49
(g70
g51
NtRp883
(dp884
g54
(dp885
g81
g82
ssg63
g874
sg56
(lp886
S':'
asbag49
(g70
g51
NtRp887
(dp888
g54
(dp889
sg63
g874
sg56
(lp890
g49
(g50
g51
NtRp891
(dp892
g54
(dp893
g62
I4
ssg63
g887
sg56
(lp894
S'set([])'
p895
asbasbasbag49
(g65
g51
NtRp896
(dp897
g54
(dp898
sg63
g779
sg56
(lp899
g49
(g70
g51
NtRp900
(dp901
g54
(dp902
g74
g75
ssg63
g896
sg56
(lp903
S'debugging'
p904
asbag49
(g70
g51
NtRp905
(dp906
g54
(dp907
g81
g82
ssg63
g896
sg56
(lp908
S':'
asbag49
(g70
g51
NtRp909
(dp910
g54
(dp911
sg63
g896
sg56
(lp912
g49
(g50
g51
NtRp913
(dp914
g54
(dp915
g62
I4
ssg63
g909
sg56
(lp916
g92
asbasbasbag49
(g65
g51
NtRp917
(dp918
g54
(dp919
sg63
g779
sg56
(lp920
g49
(g70
g51
NtRp921
(dp922
g54
(dp923
g74
g75
ssg63
g917
sg56
(lp924
S'gluon_parent'
p925
asbag49
(g70
g51
NtRp926
(dp927
g54
(dp928
g81
g82
ssg63
g917
sg56
(lp929
S':'
asbag49
(g70
g51
NtRp930
(dp931
g54
(dp932
sg63
g917
sg56
(lp933
g49
(g50
g51
NtRp934
(dp935
g54
(dp936
g62
I4
ssg63
g930
sg56
(lp937
S'D:\\UCZELNIA\\ELKA\\tin\\web2py\\web2py_win\\web2py'
p938
asbasbasbag49
(g65
g51
NtRp939
(dp940
g54
(dp941
sg63
g779
sg56
(lp942
g49
(g70
g51
NtRp943
(dp944
g54
(dp945
g74
g75
ssg63
g939
sg56
(lp946
S'http_accept'
p947
asbag49
(g70
g51
NtRp948
(dp949
g54
(dp950
g81
g82
ssg63
g939
sg56
(lp951
S':'
asbag49
(g70
g51
NtRp952
(dp953
g54
(dp954
sg63
g939
sg56
(lp955
g49
(g50
g51
NtRp956
(dp957
g54
(dp958
g62
I4
ssg63
g952
sg56
(lp959
S'text/html,application/xhtml+xml,application/xml;q=0.9,*/*;q=0.8'
p960
asbasbasbag49
(g65
g51
NtRp961
(dp962
g54
(dp963
sg63
g779
sg56
(lp964
g49
(g70
g51
NtRp965
(dp966
g54
(dp967
g74
g75
ssg63
g961
sg56
(lp968
S'http_accept_charset'
p969
asbag49
(g70
g51
NtRp970
(dp971
g54
(dp972
g81
g82
ssg63
g961
sg56
(lp973
S':'
asbag49
(g70
g51
NtRp974
(dp975
g54
(dp976
sg63
g961
sg56
(lp977
g49
(g50
g51
NtRp978
(dp979
g54
(dp980
g62
I4
ssg63
g974
sg56
(lp981
S'ISO-8859-2,utf-8;q=0.7,*;q=0.7'
p982
asbasbasbag49
(g65
g51
NtRp983
(dp984
g54
(dp985
sg63
g779
sg56
(lp986
g49
(g70
g51
NtRp987
(dp988
g54
(dp989
g74
g75
ssg63
g983
sg56
(lp990
S'http_accept_encoding'
p991
asbag49
(g70
g51
NtRp992
(dp993
g54
(dp994
g81
g82
ssg63
g983
sg56
(lp995
S':'
asbag49
(g70
g51
NtRp996
(dp997
g54
(dp998
sg63
g983
sg56
(lp999
g49
(g50
g51
NtRp1000
(dp1001
g54
(dp1002
g62
I4
ssg63
g996
sg56
(lp1003
S'gzip,deflate'
p1004
asbasbasbag49
(g65
g51
NtRp1005
(dp1006
g54
(dp1007
sg63
g779
sg56
(lp1008
g49
(g70
g51
NtRp1009
(dp1010
g54
(dp1011
g74
g75
ssg63
g1005
sg56
(lp1012
S'http_accept_language'
p1013
asbag49
(g70
g51
NtRp1014
(dp1015
g54
(dp1016
g81
g82
ssg63
g1005
sg56
(lp1017
S':'
asbag49
(g70
g51
NtRp1018
(dp1019
g54
(dp1020
sg63
g1005
sg56
(lp1021
g49
(g50
g51
NtRp1022
(dp1023
g54
(dp1024
g62
I4
ssg63
g1018
sg56
(lp1025
S'pl,en-us;q=0.7,en;q=0.3'
p1026
asbasbasbag49
(g65
g51
NtRp1027
(dp1028
g54
(dp1029
sg63
g779
sg56
(lp1030
g49
(g70
g51
NtRp1031
(dp1032
g54
(dp1033
g74
g75
ssg63
g1027
sg56
(lp1034
S'http_connection'
p1035
asbag49
(g70
g51
NtRp1036
(dp1037
g54
(dp1038
g81
g82
ssg63
g1027
sg56
(lp1039
S':'
asbag49
(g70
g51
NtRp1040
(dp1041
g54
(dp1042
sg63
g1027
sg56
(lp1043
g49
(g50
g51
NtRp1044
(dp1045
g54
(dp1046
g62
I4
ssg63
g1040
sg56
(lp1047
S'keep-alive'
p1048
asbasbasbag49
(g65
g51
NtRp1049
(dp1050
g54
(dp1051
sg63
g779
sg56
(lp1052
g49
(g70
g51
NtRp1053
(dp1054
g54
(dp1055
g74
g75
ssg63
g1049
sg56
(lp1056
S'http_cookie'
p1057
asbag49
(g70
g51
NtRp1058
(dp1059
g54
(dp1060
g81
g82
ssg63
g1049
sg56
(lp1061
S':'
asbag49
(g70
g51
NtRp1062
(dp1063
g54
(dp1064
sg63
g1049
sg56
(lp1065
g49
(g50
g51
NtRp1066
(dp1067
g54
(dp1068
g62
I4
ssg63
g1062
sg56
(lp1069
S'session_id_welcome=127.0.0.1-ec2d0a75-b5c9-4e96-ad47-0a4e962410c9; session_id_admin=127.0.0.1-ec258d56-d5bc-4ca8-88b1-895744aec544; session_id_asa=127.0.0.1-e0241e6a-d76e-4a96-90ff-9a64d2380ff9'
p1070
asbasbasbag49
(g65
g51
NtRp1071
(dp1072
g54
(dp1073
sg63
g779
sg56
(lp1074
g49
(g70
g51
NtRp1075
(dp1076
g54
(dp1077
g74
g75
ssg63
g1071
sg56
(lp1078
S'http_host'
p1079
asbag49
(g70
g51
NtRp1080
(dp1081
g54
(dp1082
g81
g82
ssg63
g1071
sg56
(lp1083
S':'
asbag49
(g70
g51
NtRp1084
(dp1085
g54
(dp1086
sg63
g1071
sg56
(lp1087
g49
(g50
g51
NtRp1088
(dp1089
g54
(dp1090
g62
I4
ssg63
g1084
sg56
(lp1091
S'127.0.0.1:8000'
p1092
asbasbasbag49
(g65
g51
NtRp1093
(dp1094
g54
(dp1095
sg63
g779
sg56
(lp1096
g49
(g70
g51
NtRp1097
(dp1098
g54
(dp1099
g74
g75
ssg63
g1093
sg56
(lp1100
S'http_keep_alive'
p1101
asbag49
(g70
g51
NtRp1102
(dp1103
g54
(dp1104
g81
g82
ssg63
g1093
sg56
(lp1105
S':'
asbag49
(g70
g51
NtRp1106
(dp1107
g54
(dp1108
sg63
g1093
sg56
(lp1109
g49
(g50
g51
NtRp1110
(dp1111
g54
(dp1112
g62
I4
ssg63
g1106
sg56
(lp1113
S'115'
p1114
asbasbasbag49
(g65
g51
NtRp1115
(dp1116
g54
(dp1117
sg63
g779
sg56
(lp1118
g49
(g70
g51
NtRp1119
(dp1120
g54
(dp1121
g74
g75
ssg63
g1115
sg56
(lp1122
S'http_referer'
p1123
asbag49
(g70
g51
NtRp1124
(dp1125
g54
(dp1126
g81
g82
ssg63
g1115
sg56
(lp1127
S':'
asbag49
(g70
g51
NtRp1128
(dp1129
g54
(dp1130
sg63
g1115
sg56
(lp1131
g49
(g50
g51
NtRp1132
(dp1133
g54
(dp1134
g62
I4
ssg63
g1128
sg56
(lp1135
S'http://127.0.0.1:8000/ASA/appadmin/select/db/log'
p1136
asbasbasbag49
(g65
g51
NtRp1137
(dp1138
g54
(dp1139
sg63
g779
sg56
(lp1140
g49
(g70
g51
NtRp1141
(dp1142
g54
(dp1143
g74
g75
ssg63
g1137
sg56
(lp1144
S'http_user_agent'
p1145
asbag49
(g70
g51
NtRp1146
(dp1147
g54
(dp1148
g81
g82
ssg63
g1137
sg56
(lp1149
S':'
asbag49
(g70
g51
NtRp1150
(dp1151
g54
(dp1152
sg63
g1137
sg56
(lp1153
g49
(g50
g51
NtRp1154
(dp1155
g54
(dp1156
g62
I4
ssg63
g1150
sg56
(lp1157
S'Mozilla/5.0 (Windows; U; Windows NT 6.1; pl; rv:1.9.2.25) Gecko/20111212 Firefox/3.6.25'
p1158
asbasbasbag49
(g65
g51
NtRp1159
(dp1160
g54
(dp1161
sg63
g779
sg56
(lp1162
g49
(g70
g51
NtRp1163
(dp1164
g54
(dp1165
g74
g75
ssg63
g1159
sg56
(lp1166
S'is_jython'
p1167
asbag49
(g70
g51
NtRp1168
(dp1169
g54
(dp1170
g81
g82
ssg63
g1159
sg56
(lp1171
S':'
asbag49
(g70
g51
NtRp1172
(dp1173
g54
(dp1174
sg63
g1159
sg56
(lp1175
g49
(g50
g51
NtRp1176
(dp1177
g54
(dp1178
g62
I4
ssg63
g1172
sg56
(lp1179
g92
asbasbasbag49
(g65
g51
NtRp1180
(dp1181
g54
(dp1182
sg63
g779
sg56
(lp1183
g49
(g70
g51
NtRp1184
(dp1185
g54
(dp1186
g74
g75
ssg63
g1180
sg56
(lp1187
S'is_pypy'
p1188
asbag49
(g70
g51
NtRp1189
(dp1190
g54
(dp1191
g81
g82
ssg63
g1180
sg56
(lp1192
S':'
asbag49
(g70
g51
NtRp1193
(dp1194
g54
(dp1195
sg63
g1180
sg56
(lp1196
g49
(g50
g51
NtRp1197
(dp1198
g54
(dp1199
g62
I4
ssg63
g1193
sg56
(lp1200
g92
asbasbasbag49
(g65
g51
NtRp1201
(dp1202
g54
(dp1203
sg63
g779
sg56
(lp1204
g49
(g70
g51
NtRp1205
(dp1206
g54
(dp1207
g74
g75
ssg63
g1201
sg56
(lp1208
S'path_info'
p1209
asbag49
(g70
g51
NtRp1210
(dp1211
g54
(dp1212
g81
g82
ssg63
g1201
sg56
(lp1213
S':'
asbag49
(g70
g51
NtRp1214
(dp1215
g54
(dp1216
sg63
g1201
sg56
(lp1217
g49
(g50
g51
NtRp1218
(dp1219
g54
(dp1220
g62
I4
ssg63
g1214
sg56
(lp1221
S'/ASA/appadmin/select/db/index'
p1222
asbasbasbag49
(g65
g51
NtRp1223
(dp1224
g54
(dp1225
sg63
g779
sg56
(lp1226
g49
(g70
g51
NtRp1227
(dp1228
g54
(dp1229
g74
g75
ssg63
g1223
sg56
(lp1230
S'query_string'
p1231
asbag49
(g70
g51
NtRp1232
(dp1233
g54
(dp1234
g81
g82
ssg63
g1223
sg56
(lp1235
S':'
asbag49
(g70
g51
NtRp1236
(dp1237
g54
(dp1238
sg63
g1223
sg56
(lp1239
g49
(g50
g51
NtRp1240
(dp1241
g54
(dp1242
g62
I4
ssg63
g1236
sg56
(lp1243
S''
asbasbasbag49
(g65
g51
NtRp1244
(dp1245
g54
(dp1246
sg63
g779
sg56
(lp1247
g49
(g70
g51
NtRp1248
(dp1249
g54
(dp1250
g74
g75
ssg63
g1244
sg56
(lp1251
S'remote_addr'
p1252
asbag49
(g70
g51
NtRp1253
(dp1254
g54
(dp1255
g81
g82
ssg63
g1244
sg56
(lp1256
S':'
asbag49
(g70
g51
NtRp1257
(dp1258
g54
(dp1259
sg63
g1244
sg56
(lp1260
g49
(g50
g51
NtRp1261
(dp1262
g54
(dp1263
g62
I4
ssg63
g1257
sg56
(lp1264
g208
asbasbasbag49
(g65
g51
NtRp1265
(dp1266
g54
(dp1267
sg63
g779
sg56
(lp1268
g49
(g70
g51
NtRp1269
(dp1270
g54
(dp1271
g74
g75
ssg63
g1265
sg56
(lp1272
S'remote_port'
p1273
asbag49
(g70
g51
NtRp1274
(dp1275
g54
(dp1276
g81
g82
ssg63
g1265
sg56
(lp1277
S':'
asbag49
(g70
g51
NtRp1278
(dp1279
g54
(dp1280
sg63
g1265
sg56
(lp1281
g49
(g50
g51
NtRp1282
(dp1283
g54
(dp1284
g62
I4
ssg63
g1278
sg56
(lp1285
S'49603'
p1286
asbasbasbag49
(g65
g51
NtRp1287
(dp1288
g54
(dp1289
sg63
g779
sg56
(lp1290
g49
(g70
g51
NtRp1291
(dp1292
g54
(dp1293
g74
g75
ssg63
g1287
sg56
(lp1294
S'request_method'
p1295
asbag49
(g70
g51
NtRp1296
(dp1297
g54
(dp1298
g81
g82
ssg63
g1287
sg56
(lp1299
S':'
asbag49
(g70
g51
NtRp1300
(dp1301
g54
(dp1302
sg63
g1287
sg56
(lp1303
g49
(g50
g51
NtRp1304
(dp1305
g54
(dp1306
g62
I4
ssg63
g1300
sg56
(lp1307
S'GET'
p1308
asbasbasbag49
(g65
g51
NtRp1309
(dp1310
g54
(dp1311
sg63
g779
sg56
(lp1312
g49
(g70
g51
NtRp1313
(dp1314
g54
(dp1315
g74
g75
ssg63
g1309
sg56
(lp1316
S'script_name'
p1317
asbag49
(g70
g51
NtRp1318
(dp1319
g54
(dp1320
g81
g82
ssg63
g1309
sg56
(lp1321
S':'
asbag49
(g70
g51
NtRp1322
(dp1323
g54
(dp1324
sg63
g1309
sg56
(lp1325
g49
(g50
g51
NtRp1326
(dp1327
g54
(dp1328
g62
I4
ssg63
g1322
sg56
(lp1329
S''
asbasbasbag49
(g65
g51
NtRp1330
(dp1331
g54
(dp1332
sg63
g779
sg56
(lp1333
g49
(g70
g51
NtRp1334
(dp1335
g54
(dp1336
g74
g75
ssg63
g1330
sg56
(lp1337
S'server_name'
p1338
asbag49
(g70
g51
NtRp1339
(dp1340
g54
(dp1341
g81
g82
ssg63
g1330
sg56
(lp1342
S':'
asbag49
(g70
g51
NtRp1343
(dp1344
g54
(dp1345
sg63
g1330
sg56
(lp1346
g49
(g50
g51
NtRp1347
(dp1348
g54
(dp1349
g62
I4
ssg63
g1343
sg56
(lp1350
S'hyden-PC'
p1351
asbasbasbag49
(g65
g51
NtRp1352
(dp1353
g54
(dp1354
sg63
g779
sg56
(lp1355
g49
(g70
g51
NtRp1356
(dp1357
g54
(dp1358
g74
g75
ssg63
g1352
sg56
(lp1359
S'server_port'
p1360
asbag49
(g70
g51
NtRp1361
(dp1362
g54
(dp1363
g81
g82
ssg63
g1352
sg56
(lp1364
S':'
asbag49
(g70
g51
NtRp1365
(dp1366
g54
(dp1367
sg63
g1352
sg56
(lp1368
g49
(g50
g51
NtRp1369
(dp1370
g54
(dp1371
g62
I4
ssg63
g1365
sg56
(lp1372
S'8000'
p1373
asbasbasbag49
(g65
g51
NtRp1374
(dp1375
g54
(dp1376
sg63
g779
sg56
(lp1377
g49
(g70
g51
NtRp1378
(dp1379
g54
(dp1380
g74
g75
ssg63
g1374
sg56
(lp1381
S'server_protocol'
p1382
asbag49
(g70
g51
NtRp1383
(dp1384
g54
(dp1385
g81
g82
ssg63
g1374
sg56
(lp1386
S':'
asbag49
(g70
g51
NtRp1387
(dp1388
g54
(dp1389
sg63
g1374
sg56
(lp1390
g49
(g50
g51
NtRp1391
(dp1392
g54
(dp1393
g62
I4
ssg63
g1387
sg56
(lp1394
S'HTTP/1.1'
p1395
asbasbasbag49
(g65
g51
NtRp1396
(dp1397
g54
(dp1398
sg63
g779
sg56
(lp1399
g49
(g70
g51
NtRp1400
(dp1401
g54
(dp1402
g74
g75
ssg63
g1396
sg56
(lp1403
S'server_software'
p1404
asbag49
(g70
g51
NtRp1405
(dp1406
g54
(dp1407
g81
g82
ssg63
g1396
sg56
(lp1408
S':'
asbag49
(g70
g51
NtRp1409
(dp1410
g54
(dp1411
sg63
g1396
sg56
(lp1412
g49
(g50
g51
NtRp1413
(dp1414
g54
(dp1415
g62
I4
ssg63
g1409
sg56
(lp1416
S'Rocket 1.2.4'
p1417
asbasbasbag49
(g65
g51
NtRp1418
(dp1419
g54
(dp1420
sg63
g779
sg56
(lp1421
g49
(g70
g51
NtRp1422
(dp1423
g54
(dp1424
g74
g75
ssg63
g1418
sg56
(lp1425
S'web2py_crontype'
p1426
asbag49
(g70
g51
NtRp1427
(dp1428
g54
(dp1429
g81
g82
ssg63
g1418
sg56
(lp1430
S':'
asbag49
(g70
g51
NtRp1431
(dp1432
g54
(dp1433
sg63
g1418
sg56
(lp1434
g49
(g50
g51
NtRp1435
(dp1436
g54
(dp1437
g62
I4
ssg63
g1431
sg56
(lp1438
S'hard'
p1439
asbasbasbag49
(g65
g51
NtRp1440
(dp1441
g54
(dp1442
sg63
g779
sg56
(lp1443
g49
(g70
g51
NtRp1444
(dp1445
g54
(dp1446
g74
g75
ssg63
g1440
sg56
(lp1447
S'web2py_path'
p1448
asbag49
(g70
g51
NtRp1449
(dp1450
g54
(dp1451
g81
g82
ssg63
g1440
sg56
(lp1452
S':'
asbag49
(g70
g51
NtRp1453
(dp1454
g54
(dp1455
sg63
g1440
sg56
(lp1456
g49
(g50
g51
NtRp1457
(dp1458
g54
(dp1459
g62
I4
ssg63
g1453
sg56
(lp1460
g826
asbasbasbag49
(g65
g51
NtRp1461
(dp1462
g54
(dp1463
sg63
g779
sg56
(lp1464
g49
(g70
g51
NtRp1465
(dp1466
g54
(dp1467
g74
g75
ssg63
g1461
sg56
(lp1468
S'web2py_version'
p1469
asbag49
(g70
g51
NtRp1470
(dp1471
g54
(dp1472
g81
g82
ssg63
g1461
sg56
(lp1473
S':'
asbag49
(g70
g51
NtRp1474
(dp1475
g54
(dp1476
sg63
g1461
sg56
(lp1477
g49
(g50
g51
NtRp1478
(dp1479
g54
(dp1480
g62
I4
ssg63
g1474
sg56
(lp1481
g49
(g58
g51
NtRp1482
(dp1483
g54
(dp1484
g62
I3
ssg63
Nsg56
(lp1485
g49
(g65
g51
NtRp1486
(dp1487
g54
(dp1488
sg63
g1482
sg56
(lp1489
g49
(g70
g51
NtRp1490
(dp1491
g54
(dp1492
sg63
g1486
sg56
(lp1493
g49
(g50
g51
NtRp1494
(dp1495
g54
(dp1496
g62
I3
ssg63
g1490
sg56
(lp1497
S'1'
asbasbasbag49
(g65
g51
NtRp1498
(dp1499
g54
(dp1500
sg63
g1482
sg56
(lp1501
g49
(g70
g51
NtRp1502
(dp1503
g54
(dp1504
sg63
g1498
sg56
(lp1505
g49
(g50
g51
NtRp1506
(dp1507
g54
(dp1508
g62
I3
ssg63
g1502
sg56
(lp1509
S'99'
p1510
asbasbasbag49
(g65
g51
NtRp1511
(dp1512
g54
(dp1513
sg63
g1482
sg56
(lp1514
g49
(g70
g51
NtRp1515
(dp1516
g54
(dp1517
sg63
g1511
sg56
(lp1518
g49
(g50
g51
NtRp1519
(dp1520
g54
(dp1521
g62
I3
ssg63
g1515
sg56
(lp1522
S'4'
asbasbasbag49
(g65
g51
NtRp1523
(dp1524
g54
(dp1525
sg63
g1482
sg56
(lp1526
g49
(g70
g51
NtRp1527
(dp1528
g54
(dp1529
sg63
g1523
sg56
(lp1530
g49
(g50
g51
NtRp1531
(dp1532
g54
(dp1533
g62
I3
ssg63
g1527
sg56
(lp1534
S'datetime.datetime(2011, 12, 14, 14, 46, 14)'
p1535
asbasbasbag49
(g65
g51
NtRp1536
(dp1537
g54
(dp1538
sg63
g1482
sg56
(lp1539
g49
(g70
g51
NtRp1540
(dp1541
g54
(dp1542
sg63
g1536
sg56
(lp1543
g49
(g50
g51
NtRp1544
(dp1545
g54
(dp1546
g62
I3
ssg63
g1540
sg56
(lp1547
S'stable'
p1548
asbasbasbasbasbasbasbag49
(g65
g51
NtRp1549
(dp1550
g54
(dp1551
sg63
g779
sg56
(lp1552
g49
(g70
g51
NtRp1553
(dp1554
g54
(dp1555
g74
g75
ssg63
g1549
sg56
(lp1556
S'wsgi_errors'
p1557
asbag49
(g70
g51
NtRp1558
(dp1559
g54
(dp1560
g81
g82
ssg63
g1549
sg56
(lp1561
S':'
asbag49
(g70
g51
NtRp1562
(dp1563
g54
(dp1564
sg63
g1549
sg56
(lp1565
g49
(g50
g51
NtRp1566
(dp1567
g54
(dp1568
g62
I4
ssg63
g1562
sg56
(lp1569
S"<open file '<stderr>', mode 'w' at 0x002C00B0>"
p1570
asbasbasbag49
(g65
g51
NtRp1571
(dp1572
g54
(dp1573
sg63
g779
sg56
(lp1574
g49
(g70
g51
NtRp1575
(dp1576
g54
(dp1577
g74
g75
ssg63
g1571
sg56
(lp1578
S'wsgi_file_wrapper'
p1579
asbag49
(g70
g51
NtRp1580
(dp1581
g54
(dp1582
g81
g82
ssg63
g1571
sg56
(lp1583
S':'
asbag49
(g70
g51
NtRp1584
(dp1585
g54
(dp1586
sg63
g1571
sg56
(lp1587
g49
(g50
g51
NtRp1588
(dp1589
g54
(dp1590
g62
I4
ssg63
g1584
sg56
(lp1591
S'<class wsgiref.util.FileWrapper at 0x0210FCF0>'
p1592
asbasbasbag49
(g65
g51
NtRp1593
(dp1594
g54
(dp1595
sg63
g779
sg56
(lp1596
g49
(g70
g51
NtRp1597
(dp1598
g54
(dp1599
g74
g75
ssg63
g1593
sg56
(lp1600
S'wsgi_input'
p1601
asbag49
(g70
g51
NtRp1602
(dp1603
g54
(dp1604
g81
g82
ssg63
g1593
sg56
(lp1605
S':'
asbag49
(g70
g51
NtRp1606
(dp1607
g54
(dp1608
sg63
g1593
sg56
(lp1609
g49
(g50
g51
NtRp1610
(dp1611
g54
(dp1612
g62
I4
ssg63
g1606
sg56
(lp1613
S'<socket._fileobject object at 0x06073DF0>'
p1614
asbasbasbag49
(g65
g51
NtRp1615
(dp1616
g54
(dp1617
sg63
g779
sg56
(lp1618
g49
(g70
g51
NtRp1619
(dp1620
g54
(dp1621
g74
g75
ssg63
g1615
sg56
(lp1622
S'wsgi_multiprocess'
p1623
asbag49
(g70
g51
NtRp1624
(dp1625
g54
(dp1626
g81
g82
ssg63
g1615
sg56
(lp1627
S':'
asbag49
(g70
g51
NtRp1628
(dp1629
g54
(dp1630
sg63
g1615
sg56
(lp1631
g49
(g50
g51
NtRp1632
(dp1633
g54
(dp1634
g62
I4
ssg63
g1628
sg56
(lp1635
g92
asbasbasbag49
(g65
g51
NtRp1636
(dp1637
g54
(dp1638
sg63
g779
sg56
(lp1639
g49
(g70
g51
NtRp1640
(dp1641
g54
(dp1642
g74
g75
ssg63
g1636
sg56
(lp1643
S'wsgi_multithread'
p1644
asbag49
(g70
g51
NtRp1645
(dp1646
g54
(dp1647
g81
g82
ssg63
g1636
sg56
(lp1648
S':'
asbag49
(g70
g51
NtRp1649
(dp1650
g54
(dp1651
sg63
g1636
sg56
(lp1652
g49
(g50
g51
NtRp1653
(dp1654
g54
(dp1655
g62
I4
ssg63
g1649
sg56
(lp1656
S'True'
p1657
asbasbasbag49
(g65
g51
NtRp1658
(dp1659
g54
(dp1660
sg63
g779
sg56
(lp1661
g49
(g70
g51
NtRp1662
(dp1663
g54
(dp1664
g74
g75
ssg63
g1658
sg56
(lp1665
S'wsgi_run_once'
p1666
asbag49
(g70
g51
NtRp1667
(dp1668
g54
(dp1669
g81
g82
ssg63
g1658
sg56
(lp1670
S':'
asbag49
(g70
g51
NtRp1671
(dp1672
g54
(dp1673
sg63
g1658
sg56
(lp1674
g49
(g50
g51
NtRp1675
(dp1676
g54
(dp1677
g62
I4
ssg63
g1671
sg56
(lp1678
g92
asbasbasbag49
(g65
g51
NtRp1679
(dp1680
g54
(dp1681
sg63
g779
sg56
(lp1682
g49
(g70
g51
NtRp1683
(dp1684
g54
(dp1685
g74
g75
ssg63
g1679
sg56
(lp1686
S'wsgi_url_scheme'
p1687
asbag49
(g70
g51
NtRp1688
(dp1689
g54
(dp1690
g81
g82
ssg63
g1679
sg56
(lp1691
S':'
asbag49
(g70
g51
NtRp1692
(dp1693
g54
(dp1694
sg63
g1679
sg56
(lp1695
g49
(g50
g51
NtRp1696
(dp1697
g54
(dp1698
g62
I4
ssg63
g1692
sg56
(lp1699
S'http'
p1700
asbasbasbag49
(g65
g51
NtRp1701
(dp1702
g54
(dp1703
sg63
g779
sg56
(lp1704
g49
(g70
g51
NtRp1705
(dp1706
g54
(dp1707
g74
g75
ssg63
g1701
sg56
(lp1708
S'wsgi_version'
p1709
asbag49
(g70
g51
NtRp1710
(dp1711
g54
(dp1712
g81
g82
ssg63
g1701
sg56
(lp1713
S':'
asbag49
(g70
g51
NtRp1714
(dp1715
g54
(dp1716
sg63
g1701
sg56
(lp1717
g49
(g50
g51
NtRp1718
(dp1719
g54
(dp1720
g62
I4
ssg63
g1714
sg56
(lp1721
g49
(g58
g51
NtRp1722
(dp1723
g54
(dp1724
g62
I3
ssg63
Nsg56
(lp1725
g49
(g65
g51
NtRp1726
(dp1727
g54
(dp1728
sg63
g1722
sg56
(lp1729
g49
(g70
g51
NtRp1730
(dp1731
g54
(dp1732
sg63
g1726
sg56
(lp1733
g49
(g50
g51
NtRp1734
(dp1735
g54
(dp1736
g62
I3
ssg63
g1730
sg56
(lp1737
S'1'
asbasbasbag49
(g65
g51
NtRp1738
(dp1739
g54
(dp1740
sg63
g1722
sg56
(lp1741
g49
(g70
g51
NtRp1742
(dp1743
g54
(dp1744
sg63
g1738
sg56
(lp1745
g49
(g50
g51
NtRp1746
(dp1747
g54
(dp1748
g62
I3
ssg63
g1742
sg56
(lp1749
S'0'
asbasbasbasbasbasbasbasbasbasbasbag49
(g65
g51
NtRp1750
(dp1751
g54
(dp1752
sg63
g59
sg56
(lp1753
g49
(g70
g51
NtRp1754
(dp1755
g54
(dp1756
g74
g75
ssg63
g1750
sg56
(lp1757
S'extension'
p1758
asbag49
(g70
g51
NtRp1759
(dp1760
g54
(dp1761
g81
g82
ssg63
g1750
sg56
(lp1762
S':'
asbag49
(g70
g51
NtRp1763
(dp1764
g54
(dp1765
sg63
g1750
sg56
(lp1766
g49
(g50
g51
NtRp1767
(dp1768
g54
(dp1769
g62
I5
ssg63
g1763
sg56
(lp1770
S'html'
p1771
asbasbasbag49
(g65
g51
NtRp1772
(dp1773
g54
(dp1774
sg63
g59
sg56
(lp1775
g49
(g70
g51
NtRp1776
(dp1777
g54
(dp1778
g74
g75
ssg63
g1772
sg56
(lp1779
S'folder'
p1780
asbag49
(g70
g51
NtRp1781
(dp1782
g54
(dp1783
g81
g82
ssg63
g1772
sg56
(lp1784
S':'
asbag49
(g70
g51
NtRp1785
(dp1786
g54
(dp1787
sg63
g1772
sg56
(lp1788
g49
(g50
g51
NtRp1789
(dp1790
g54
(dp1791
g62
I5
ssg63
g1785
sg56
(lp1792
S'D:\\UCZELNIA\\ELKA\\tin\\web2py\\web2py_win\\web2py\\applications\\ASA\\'
p1793
asbasbasbag49
(g65
g51
NtRp1794
(dp1795
g54
(dp1796
sg63
g59
sg56
(lp1797
g49
(g70
g51
NtRp1798
(dp1799
g54
(dp1800
g74
g75
ssg63
g1794
sg56
(lp1801
S'function'
p1802
asbag49
(g70
g51
NtRp1803
(dp1804
g54
(dp1805
g81
g82
ssg63
g1794
sg56
(lp1806
S':'
asbag49
(g70
g51
NtRp1807
(dp1808
g54
(dp1809
sg63
g1794
sg56
(lp1810
g49
(g50
g51
NtRp1811
(dp1812
g54
(dp1813
g62
I5
ssg63
g1807
sg56
(lp1814
S'select'
p1815
asbasbasbag49
(g65
g51
NtRp1816
(dp1817
g54
(dp1818
sg63
g59
sg56
(lp1819
g49
(g70
g51
NtRp1820
(dp1821
g54
(dp1822
g74
g75
ssg63
g1816
sg56
(lp1823
S'get_vars'
p1824
asbag49
(g70
g51
NtRp1825
(dp1826
g54
(dp1827
g81
g82
ssg63
g1816
sg56
(lp1828
S':'
asbag49
(g70
g51
NtRp1829
(dp1830
g54
(dp1831
sg63
g1816
sg56
(lp1832
g49
(g50
g51
NtRp1833
(dp1834
g54
(dp1835
g62
I5
ssg63
g1829
sg56
(lp1836
g49
(g58
g51
NtRp1837
(dp1838
g54
(dp1839
g62
I4
ssg63
Nsg56
(lp1840
sbasbasbasbag49
(g65
g51
NtRp1841
(dp1842
g54
(dp1843
sg63
g59
sg56
(lp1844
g49
(g70
g51
NtRp1845
(dp1846
g54
(dp1847
g74
g75
ssg63
g1841
sg56
(lp1848
S'global_settings'
p1849
asbag49
(g70
g51
NtRp1850
(dp1851
g54
(dp1852
g81
g82
ssg63
g1841
sg56
(lp1853
S':'
asbag49
(g70
g51
NtRp1854
(dp1855
g54
(dp1856
sg63
g1841
sg56
(lp1857
g49
(g50
g51
NtRp1858
(dp1859
g54
(dp1860
g62
I5
ssg63
g1854
sg56
(lp1861
g49
(g58
g51
NtRp1862
(dp1863
g54
(dp1864
g62
I4
ssg63
Nsg56
(lp1865
g49
(g65
g51
NtRp1866
(dp1867
g54
(dp1868
sg63
g1862
sg56
(lp1869
g49
(g70
g51
NtRp1870
(dp1871
g54
(dp1872
g74
g75
ssg63
g1866
sg56
(lp1873
g791
asbag49
(g70
g51
NtRp1874
(dp1875
g54
(dp1876
g81
g82
ssg63
g1866
sg56
(lp1877
S':'
asbag49
(g70
g51
NtRp1878
(dp1879
g54
(dp1880
sg63
g1866
sg56
(lp1881
g49
(g50
g51
NtRp1882
(dp1883
g54
(dp1884
g62
I4
ssg63
g1878
sg56
(lp1885
S"set(['D:\\\\UCZELNIA\\\\ELKA\\\\tin\\\\web2py\\\\web2py_win\\\\web2py\\\\applications\\\\welcome\\\\', 'D:\\\\UCZELNIA\\\\ELKA\\\\tin\\\\web2py\\\\web2py_win\\\\web2py\\\\applications\\\\admin\\\\', 'D:\\\\UCZELNIA\\\\ELKA\\\\tin\\\\web2py\\\\web2py_win\\\\web2py\\\\applications\\\\ASA\\\\'])"
p1886
asbasbasbag49
(g65
g51
NtRp1887
(dp1888
g54
(dp1889
sg63
g1862
sg56
(lp1890
g49
(g70
g51
NtRp1891
(dp1892
g54
(dp1893
g74
g75
ssg63
g1887
sg56
(lp1894
g813
asbag49
(g70
g51
NtRp1895
(dp1896
g54
(dp1897
g81
g82
ssg63
g1887
sg56
(lp1898
S':'
asbag49
(g70
g51
NtRp1899
(dp1900
g54
(dp1901
sg63
g1887
sg56
(lp1902
g49
(g50
g51
NtRp1903
(dp1904
g54
(dp1905
g62
I4
ssg63
g1899
sg56
(lp1906
g826
asbasbasbag49
(g65
g51
NtRp1907
(dp1908
g54
(dp1909
sg63
g1862
sg56
(lp1910
g49
(g70
g51
NtRp1911
(dp1912
g54
(dp1913
g74
g75
ssg63
g1907
sg56
(lp1914
g835
asbag49
(g70
g51
NtRp1915
(dp1916
g54
(dp1917
g81
g82
ssg63
g1907
sg56
(lp1918
S':'
asbag49
(g70
g51
NtRp1919
(dp1920
g54
(dp1921
sg63
g1907
sg56
(lp1922
g49
(g50
g51
NtRp1923
(dp1924
g54
(dp1925
g62
I4
ssg63
g1919
sg56
(lp1926
g49
(g58
g51
NtRp1927
(dp1928
g54
(dp1929
g62
I3
ssg63
Nsg56
(lp1930
sbasbasbasbag49
(g65
g51
NtRp1931
(dp1932
g54
(dp1933
sg63
g1862
sg56
(lp1934
g49
(g70
g51
NtRp1935
(dp1936
g54
(dp1937
g74
g75
ssg63
g1931
sg56
(lp1938
g860
asbag49
(g70
g51
NtRp1939
(dp1940
g54
(dp1941
g81
g82
ssg63
g1931
sg56
(lp1942
S':'
asbag49
(g70
g51
NtRp1943
(dp1944
g54
(dp1945
sg63
g1931
sg56
(lp1946
g49
(g50
g51
NtRp1947
(dp1948
g54
(dp1949
g62
I4
ssg63
g1943
sg56
(lp1950
S"<Values at 0x2cfc300: {'verbose': False, 'ip': '127.0.0.1', 'shutdown_timeout': 5, 'taskbar': False, 'nocron': False, 'pid_filename': 'httpserver.pid', 'maxthreads': None, 'softcron': False, 'server_name': 'hyden-PC', 'bpython': False, 'nogui': False, 'port': 8000, 'extcron': False, 'debuglevel': 30, 'test': None, 'folder': 'D:\\\\UCZELNIA\\\\ELKA\\\\tin\\\\web2py\\\\web2py_win\\\\web2py', 'config': '', 'import_models': False, 'winservice': '', 'shell': None, 'run': '', 'log_filename': 'httpserver.log', 'args': [''], 'socket_timeout': 1, 'ssl_ca_certificate': None, 'scheduler': None, 'profiler_filename': None, 'ssl_private_key': '', 'password': '<ask>', 'request_queue_size': 5, 'ssl_certificate': '', 'cronjob': False, 'numthreads': None, 'quiet': False, 'interfaces': None, 'minthreads': None, 'timeout': 10, 'plain': False, 'nobanner': False}>"
p1951
asbasbasbag49
(g65
g51
NtRp1952
(dp1953
g54
(dp1954
sg63
g1862
sg56
(lp1955
g49
(g70
g51
NtRp1956
(dp1957
g54
(dp1958
g74
g75
ssg63
g1952
sg56
(lp1959
g882
asbag49
(g70
g51
NtRp1960
(dp1961
g54
(dp1962
g81
g82
ssg63
g1952
sg56
(lp1963
S':'
asbag49
(g70
g51
NtRp1964
(dp1965
g54
(dp1966
sg63
g1952
sg56
(lp1967
g49
(g50
g51
NtRp1968
(dp1969
g54
(dp1970
g62
I4
ssg63
g1964
sg56
(lp1971
S'set([])'
p1972
asbasbasbag49
(g65
g51
NtRp1973
(dp1974
g54
(dp1975
sg63
g1862
sg56
(lp1976
g49
(g70
g51
NtRp1977
(dp1978
g54
(dp1979
g74
g75
ssg63
g1973
sg56
(lp1980
g904
asbag49
(g70
g51
NtRp1981
(dp1982
g54
(dp1983
g81
g82
ssg63
g1973
sg56
(lp1984
S':'
asbag49
(g70
g51
NtRp1985
(dp1986
g54
(dp1987
sg63
g1973
sg56
(lp1988
g49
(g50
g51
NtRp1989
(dp1990
g54
(dp1991
g62
I4
ssg63
g1985
sg56
(lp1992
g92
asbasbasbag49
(g65
g51
NtRp1993
(dp1994
g54
(dp1995
sg63
g1862
sg56
(lp1996
g49
(g70
g51
NtRp1997
(dp1998
g54
(dp1999
g74
g75
ssg63
g1993
sg56
(lp2000
g925
asbag49
(g70
g51
NtRp2001
(dp2002
g54
(dp2003
g81
g82
ssg63
g1993
sg56
(lp2004
S':'
asbag49
(g70
g51
NtRp2005
(dp2006
g54
(dp2007
sg63
g1993
sg56
(lp2008
g49
(g50
g51
NtRp2009
(dp2010
g54
(dp2011
g62
I4
ssg63
g2005
sg56
(lp2012
g938
asbasbasbag49
(g65
g51
NtRp2013
(dp2014
g54
(dp2015
sg63
g1862
sg56
(lp2016
g49
(g70
g51
NtRp2017
(dp2018
g54
(dp2019
g74
g75
ssg63
g2013
sg56
(lp2020
g1167
asbag49
(g70
g51
NtRp2021
(dp2022
g54
(dp2023
g81
g82
ssg63
g2013
sg56
(lp2024
S':'
asbag49
(g70
g51
NtRp2025
(dp2026
g54
(dp2027
sg63
g2013
sg56
(lp2028
g49
(g50
g51
NtRp2029
(dp2030
g54
(dp2031
g62
I4
ssg63
g2025
sg56
(lp2032
g92
asbasbasbag49
(g65
g51
NtRp2033
(dp2034
g54
(dp2035
sg63
g1862
sg56
(lp2036
g49
(g70
g51
NtRp2037
(dp2038
g54
(dp2039
g74
g75
ssg63
g2033
sg56
(lp2040
g1188
asbag49
(g70
g51
NtRp2041
(dp2042
g54
(dp2043
g81
g82
ssg63
g2033
sg56
(lp2044
S':'
asbag49
(g70
g51
NtRp2045
(dp2046
g54
(dp2047
sg63
g2033
sg56
(lp2048
g49
(g50
g51
NtRp2049
(dp2050
g54
(dp2051
g62
I4
ssg63
g2045
sg56
(lp2052
g92
asbasbasbag49
(g65
g51
NtRp2053
(dp2054
g54
(dp2055
sg63
g1862
sg56
(lp2056
g49
(g70
g51
NtRp2057
(dp2058
g54
(dp2059
g74
g75
ssg63
g2053
sg56
(lp2060
g1426
asbag49
(g70
g51
NtRp2061
(dp2062
g54
(dp2063
g81
g82
ssg63
g2053
sg56
(lp2064
S':'
asbag49
(g70
g51
NtRp2065
(dp2066
g54
(dp2067
sg63
g2053
sg56
(lp2068
g49
(g50
g51
NtRp2069
(dp2070
g54
(dp2071
g62
I4
ssg63
g2065
sg56
(lp2072
g1439
asbasbasbag49
(g65
g51
NtRp2073
(dp2074
g54
(dp2075
sg63
g1862
sg56
(lp2076
g49
(g70
g51
NtRp2077
(dp2078
g54
(dp2079
g74
g75
ssg63
g2073
sg56
(lp2080
g1469
asbag49
(g70
g51
NtRp2081
(dp2082
g54
(dp2083
g81
g82
ssg63
g2073
sg56
(lp2084
S':'
asbag49
(g70
g51
NtRp2085
(dp2086
g54
(dp2087
sg63
g2073
sg56
(lp2088
g49
(g50
g51
NtRp2089
(dp2090
g54
(dp2091
g62
I4
ssg63
g2085
sg56
(lp2092
g49
(g58
g51
NtRp2093
(dp2094
g54
(dp2095
g62
I3
ssg63
Nsg56
(lp2096
g49
(g65
g51
NtRp2097
(dp2098
g54
(dp2099
sg63
g2093
sg56
(lp2100
g49
(g70
g51
NtRp2101
(dp2102
g54
(dp2103
sg63
g2097
sg56
(lp2104
g49
(g50
g51
NtRp2105
(dp2106
g54
(dp2107
g62
I3
ssg63
g2101
sg56
(lp2108
S'1'
asbasbasbag49
(g65
g51
NtRp2109
(dp2110
g54
(dp2111
sg63
g2093
sg56
(lp2112
g49
(g70
g51
NtRp2113
(dp2114
g54
(dp2115
sg63
g2109
sg56
(lp2116
g49
(g50
g51
NtRp2117
(dp2118
g54
(dp2119
g62
I3
ssg63
g2113
sg56
(lp2120
S'99'
p2121
asbasbasbag49
(g65
g51
NtRp2122
(dp2123
g54
(dp2124
sg63
g2093
sg56
(lp2125
g49
(g70
g51
NtRp2126
(dp2127
g54
(dp2128
sg63
g2122
sg56
(lp2129
g49
(g50
g51
NtRp2130
(dp2131
g54
(dp2132
g62
I3
ssg63
g2126
sg56
(lp2133
S'4'
asbasbasbag49
(g65
g51
NtRp2134
(dp2135
g54
(dp2136
sg63
g2093
sg56
(lp2137
g49
(g70
g51
NtRp2138
(dp2139
g54
(dp2140
sg63
g2134
sg56
(lp2141
g49
(g50
g51
NtRp2142
(dp2143
g54
(dp2144
g62
I3
ssg63
g2138
sg56
(lp2145
S'datetime.datetime(2011, 12, 14, 14, 46, 14)'
p2146
asbasbasbag49
(g65
g51
NtRp2147
(dp2148
g54
(dp2149
sg63
g2093
sg56
(lp2150
g49
(g70
g51
NtRp2151
(dp2152
g54
(dp2153
sg63
g2147
sg56
(lp2154
g49
(g50
g51
NtRp2155
(dp2156
g54
(dp2157
g62
I3
ssg63
g2151
sg56
(lp2158
g1548
asbasbasbasbasbasbasbasbasbasbasbag49
(g65
g51
NtRp2159
(dp2160
g54
(dp2161
sg63
g59
sg56
(lp2162
g49
(g70
g51
NtRp2163
(dp2164
g54
(dp2165
g74
g75
ssg63
g2159
sg56
(lp2166
S'is_https'
p2167
asbag49
(g70
g51
NtRp2168
(dp2169
g54
(dp2170
g81
g82
ssg63
g2159
sg56
(lp2171
S':'
asbag49
(g70
g51
NtRp2172
(dp2173
g54
(dp2174
sg63
g2159
sg56
(lp2175
g49
(g50
g51
NtRp2176
(dp2177
g54
(dp2178
g62
I5
ssg63
g2172
sg56
(lp2179
g92
asbasbasbag49
(g65
g51
NtRp2180
(dp2181
g54
(dp2182
sg63
g59
sg56
(lp2183
g49
(g70
g51
NtRp2184
(dp2185
g54
(dp2186
g74
g75
ssg63
g2180
sg56
(lp2187
S'is_local'
p2188
asbag49
(g70
g51
NtRp2189
(dp2190
g54
(dp2191
g81
g82
ssg63
g2180
sg56
(lp2192
S':'
asbag49
(g70
g51
NtRp2193
(dp2194
g54
(dp2195
sg63
g2180
sg56
(lp2196
g49
(g50
g51
NtRp2197
(dp2198
g54
(dp2199
g62
I5
ssg63
g2193
sg56
(lp2200
g1657
asbasbasbag49
(g65
g51
NtRp2201
(dp2202
g54
(dp2203
sg63
g59
sg56
(lp2204
g49
(g70
g51
NtRp2205
(dp2206
g54
(dp2207
g74
g75
ssg63
g2201
sg56
(lp2208
S'is_restful'
p2209
asbag49
(g70
g51
NtRp2210
(dp2211
g54
(dp2212
g81
g82
ssg63
g2201
sg56
(lp2213
S':'
asbag49
(g70
g51
NtRp2214
(dp2215
g54
(dp2216
sg63
g2201
sg56
(lp2217
g49
(g50
g51
NtRp2218
(dp2219
g54
(dp2220
g62
I5
ssg63
g2214
sg56
(lp2221
g92
asbasbasbag49
(g65
g51
NtRp2222
(dp2223
g54
(dp2224
sg63
g59
sg56
(lp2225
g49
(g70
g51
NtRp2226
(dp2227
g54
(dp2228
g74
g75
ssg63
g2222
sg56
(lp2229
S'now'
p2230
asbag49
(g70
g51
NtRp2231
(dp2232
g54
(dp2233
g81
g82
ssg63
g2222
sg56
(lp2234
S':'
asbag49
(g70
g51
NtRp2235
(dp2236
g54
(dp2237
sg63
g2222
sg56
(lp2238
g49
(g50
g51
NtRp2239
(dp2240
g54
(dp2241
g62
I5
ssg63
g2235
sg56
(lp2242
S'datetime.datetime(2012, 1, 9, 18, 4, 14, 201000)'
p2243
asbasbasbag49
(g65
g51
NtRp2244
(dp2245
g54
(dp2246
sg63
g59
sg56
(lp2247
g49
(g70
g51
NtRp2248
(dp2249
g54
(dp2250
g74
g75
ssg63
g2244
sg56
(lp2251
S'post_vars'
p2252
asbag49
(g70
g51
NtRp2253
(dp2254
g54
(dp2255
g81
g82
ssg63
g2244
sg56
(lp2256
S':'
asbag49
(g70
g51
NtRp2257
(dp2258
g54
(dp2259
sg63
g2244
sg56
(lp2260
g49
(g50
g51
NtRp2261
(dp2262
g54
(dp2263
g62
I5
ssg63
g2257
sg56
(lp2264
g49
(g58
g51
NtRp2265
(dp2266
g54
(dp2267
g62
I4
ssg63
Nsg56
(lp2268
sbasbasbasbag49
(g65
g51
NtRp2269
(dp2270
g54
(dp2271
sg63
g59
sg56
(lp2272
g49
(g70
g51
NtRp2273
(dp2274
g54
(dp2275
g74
g75
ssg63
g2269
sg56
(lp2276
S'raw_args'
p2277
asbag49
(g70
g51
NtRp2278
(dp2279
g54
(dp2280
g81
g82
ssg63
g2269
sg56
(lp2281
S':'
asbag49
(g70
g51
NtRp2282
(dp2283
g54
(dp2284
sg63
g2269
sg56
(lp2285
g49
(g50
g51
NtRp2286
(dp2287
g54
(dp2288
g62
I5
ssg63
g2282
sg56
(lp2289
S'db/index'
p2290
asbasbasbag49
(g65
g51
NtRp2291
(dp2292
g54
(dp2293
sg63
g59
sg56
(lp2294
g49
(g70
g51
NtRp2295
(dp2296
g54
(dp2297
g74
g75
ssg63
g2291
sg56
(lp2298
S'url'
p2299
asbag49
(g70
g51
NtRp2300
(dp2301
g54
(dp2302
g81
g82
ssg63
g2291
sg56
(lp2303
S':'
asbag49
(g70
g51
NtRp2304
(dp2305
g54
(dp2306
sg63
g2291
sg56
(lp2307
g49
(g50
g51
NtRp2308
(dp2309
g54
(dp2310
g62
I5
ssg63
g2304
sg56
(lp2311
S'/ASA/appadmin/select/db/index'
p2312
asbasbasbag49
(g65
g51
NtRp2313
(dp2314
g54
(dp2315
sg63
g59
sg56
(lp2316
g49
(g70
g51
NtRp2317
(dp2318
g54
(dp2319
g74
g75
ssg63
g2313
sg56
(lp2320
S'utcnow'
p2321
asbag49
(g70
g51
NtRp2322
(dp2323
g54
(dp2324
g81
g82
ssg63
g2313
sg56
(lp2325
S':'
asbag49
(g70
g51
NtRp2326
(dp2327
g54
(dp2328
sg63
g2313
sg56
(lp2329
g49
(g50
g51
NtRp2330
(dp2331
g54
(dp2332
g62
I5
ssg63
g2326
sg56
(lp2333
S'datetime.datetime(2012, 1, 9, 17, 4, 14, 201000)'
p2334
asbasbasbag49
(g65
g51
NtRp2335
(dp2336
g54
(dp2337
sg63
g59
sg56
(lp2338
g49
(g70
g51
NtRp2339
(dp2340
g54
(dp2341
g74
g75
ssg63
g2335
sg56
(lp2342
S'uuid'
p2343
asbag49
(g70
g51
NtRp2344
(dp2345
g54
(dp2346
g81
g82
ssg63
g2335
sg56
(lp2347
S':'
asbag49
(g70
g51
NtRp2348
(dp2349
g54
(dp2350
sg63
g2335
sg56
(lp2351
g49
(g50
g51
NtRp2352
(dp2353
g54
(dp2354
g62
I5
ssg63
g2348
sg56
(lp2355
S'ASA/127.0.0.1.2012-01-09.18-04-14.97c41f01-9b76-48cc-a4c9-d5b6f4978f92'
p2356
asbasbasbag49
(g65
g51
NtRp2357
(dp2358
g54
(dp2359
sg63
g59
sg56
(lp2360
g49
(g70
g51
NtRp2361
(dp2362
g54
(dp2363
g74
g75
ssg63
g2357
sg56
(lp2364
S'vars'
p2365
asbag49
(g70
g51
NtRp2366
(dp2367
g54
(dp2368
g81
g82
ssg63
g2357
sg56
(lp2369
S':'
asbag49
(g70
g51
NtRp2370
(dp2371
g54
(dp2372
sg63
g2357
sg56
(lp2373
g49
(g50
g51
NtRp2374
(dp2375
g54
(dp2376
g62
I5
ssg63
g2370
sg56
(lp2377
g49
(g58
g51
NtRp2378
(dp2379
g54
(dp2380
g62
I4
ssg63
Nsg56
(lp2381
sbasbasbasbag49
(g65
g51
NtRp2382
(dp2383
g54
(dp2384
sg63
g59
sg56
(lp2385
g49
(g70
g51
NtRp2386
(dp2387
g54
(dp2388
g74
g75
ssg63
g2382
sg56
(lp2389
S'wsgi'
p2390
asbag49
(g70
g51
NtRp2391
(dp2392
g54
(dp2393
g81
g82
ssg63
g2382
sg56
(lp2394
S':'
asbag49
(g70
g51
NtRp2395
(dp2396
g54
(dp2397
sg63
g2382
sg56
(lp2398
g49
(g50
g51
NtRp2399
(dp2400
g54
(dp2401
g62
I5
ssg63
g2395
sg56
(lp2402
g49
(g58
g51
NtRp2403
(dp2404
g54
(dp2405
g62
I4
ssg63
Nsg56
(lp2406
g49
(g65
g51
NtRp2407
(dp2408
g54
(dp2409
sg63
g2403
sg56
(lp2410
g49
(g70
g51
NtRp2411
(dp2412
g54
(dp2413
g74
g75
ssg63
g2407
sg56
(lp2414
S'environ'
p2415
asbag49
(g70
g51
NtRp2416
(dp2417
g54
(dp2418
g81
g82
ssg63
g2407
sg56
(lp2419
S':'
asbag49
(g70
g51
NtRp2420
(dp2421
g54
(dp2422
sg63
g2407
sg56
(lp2423
g49
(g50
g51
NtRp2424
(dp2425
g54
(dp2426
g62
I4
ssg63
g2420
sg56
(lp2427
g49
(g58
g51
NtRp2428
(dp2429
g54
(dp2430
g62
I3
ssg63
Nsg56
(lp2431
g49
(g65
g51
NtRp2432
(dp2433
g54
(dp2434
sg63
g2428
sg56
(lp2435
g49
(g70
g51
NtRp2436
(dp2437
g54
(dp2438
g74
g75
ssg63
g2432
sg56
(lp2439
S'HTTP_ACCEPT'
p2440
asbag49
(g70
g51
NtRp2441
(dp2442
g54
(dp2443
g81
g82
ssg63
g2432
sg56
(lp2444
S':'
asbag49
(g70
g51
NtRp2445
(dp2446
g54
(dp2447
sg63
g2432
sg56
(lp2448
g49
(g50
g51
NtRp2449
(dp2450
g54
(dp2451
g62
I3
ssg63
g2445
sg56
(lp2452
g960
asbasbasbag49
(g65
g51
NtRp2453
(dp2454
g54
(dp2455
sg63
g2428
sg56
(lp2456
g49
(g70
g51
NtRp2457
(dp2458
g54
(dp2459
g74
g75
ssg63
g2453
sg56
(lp2460
S'HTTP_ACCEPT_CHARSET'
p2461
asbag49
(g70
g51
NtRp2462
(dp2463
g54
(dp2464
g81
g82
ssg63
g2453
sg56
(lp2465
S':'
asbag49
(g70
g51
NtRp2466
(dp2467
g54
(dp2468
sg63
g2453
sg56
(lp2469
g49
(g50
g51
NtRp2470
(dp2471
g54
(dp2472
g62
I3
ssg63
g2466
sg56
(lp2473
g982
asbasbasbag49
(g65
g51
NtRp2474
(dp2475
g54
(dp2476
sg63
g2428
sg56
(lp2477
g49
(g70
g51
NtRp2478
(dp2479
g54
(dp2480
g74
g75
ssg63
g2474
sg56
(lp2481
S'HTTP_ACCEPT_ENCODING'
p2482
asbag49
(g70
g51
NtRp2483
(dp2484
g54
(dp2485
g81
g82
ssg63
g2474
sg56
(lp2486
S':'
asbag49
(g70
g51
NtRp2487
(dp2488
g54
(dp2489
sg63
g2474
sg56
(lp2490
g49
(g50
g51
NtRp2491
(dp2492
g54
(dp2493
g62
I3
ssg63
g2487
sg56
(lp2494
g1004
asbasbasbag49
(g65
g51
NtRp2495
(dp2496
g54
(dp2497
sg63
g2428
sg56
(lp2498
g49
(g70
g51
NtRp2499
(dp2500
g54
(dp2501
g74
g75
ssg63
g2495
sg56
(lp2502
S'HTTP_ACCEPT_LANGUAGE'
p2503
asbag49
(g70
g51
NtRp2504
(dp2505
g54
(dp2506
g81
g82
ssg63
g2495
sg56
(lp2507
S':'
asbag49
(g70
g51
NtRp2508
(dp2509
g54
(dp2510
sg63
g2495
sg56
(lp2511
g49
(g50
g51
NtRp2512
(dp2513
g54
(dp2514
g62
I3
ssg63
g2508
sg56
(lp2515
g1026
asbasbasbag49
(g65
g51
NtRp2516
(dp2517
g54
(dp2518
sg63
g2428
sg56
(lp2519
g49
(g70
g51
NtRp2520
(dp2521
g54
(dp2522
g74
g75
ssg63
g2516
sg56
(lp2523
S'HTTP_CONNECTION'
p2524
asbag49
(g70
g51
NtRp2525
(dp2526
g54
(dp2527
g81
g82
ssg63
g2516
sg56
(lp2528
S':'
asbag49
(g70
g51
NtRp2529
(dp2530
g54
(dp2531
sg63
g2516
sg56
(lp2532
g49
(g50
g51
NtRp2533
(dp2534
g54
(dp2535
g62
I3
ssg63
g2529
sg56
(lp2536
g1048
asbasbasbag49
(g65
g51
NtRp2537
(dp2538
g54
(dp2539
sg63
g2428
sg56
(lp2540
g49
(g70
g51
NtRp2541
(dp2542
g54
(dp2543
g74
g75
ssg63
g2537
sg56
(lp2544
S'HTTP_COOKIE'
p2545
asbag49
(g70
g51
NtRp2546
(dp2547
g54
(dp2548
g81
g82
ssg63
g2537
sg56
(lp2549
S':'
asbag49
(g70
g51
NtRp2550
(dp2551
g54
(dp2552
sg63
g2537
sg56
(lp2553
g49
(g50
g51
NtRp2554
(dp2555
g54
(dp2556
g62
I3
ssg63
g2550
sg56
(lp2557
g1070
asbasbasbag49
(g65
g51
NtRp2558
(dp2559
g54
(dp2560
sg63
g2428
sg56
(lp2561
g49
(g70
g51
NtRp2562
(dp2563
g54
(dp2564
g74
g75
ssg63
g2558
sg56
(lp2565
S'HTTP_HOST'
p2566
asbag49
(g70
g51
NtRp2567
(dp2568
g54
(dp2569
g81
g82
ssg63
g2558
sg56
(lp2570
S':'
asbag49
(g70
g51
NtRp2571
(dp2572
g54
(dp2573
sg63
g2558
sg56
(lp2574
g49
(g50
g51
NtRp2575
(dp2576
g54
(dp2577
g62
I3
ssg63
g2571
sg56
(lp2578
g1092
asbasbasbag49
(g65
g51
NtRp2579
(dp2580
g54
(dp2581
sg63
g2428
sg56
(lp2582
g49
(g70
g51
NtRp2583
(dp2584
g54
(dp2585
g74
g75
ssg63
g2579
sg56
(lp2586
S'HTTP_KEEP_ALIVE'
p2587
asbag49
(g70
g51
NtRp2588
(dp2589
g54
(dp2590
g81
g82
ssg63
g2579
sg56
(lp2591
S':'
asbag49
(g70
g51
NtRp2592
(dp2593
g54
(dp2594
sg63
g2579
sg56
(lp2595
g49
(g50
g51
NtRp2596
(dp2597
g54
(dp2598
g62
I3
ssg63
g2592
sg56
(lp2599
g1114
asbasbasbag49
(g65
g51
NtRp2600
(dp2601
g54
(dp2602
sg63
g2428
sg56
(lp2603
g49
(g70
g51
NtRp2604
(dp2605
g54
(dp2606
g74
g75
ssg63
g2600
sg56
(lp2607
S'HTTP_REFERER'
p2608
asbag49
(g70
g51
NtRp2609
(dp2610
g54
(dp2611
g81
g82
ssg63
g2600
sg56
(lp2612
S':'
asbag49
(g70
g51
NtRp2613
(dp2614
g54
(dp2615
sg63
g2600
sg56
(lp2616
g49
(g50
g51
NtRp2617
(dp2618
g54
(dp2619
g62
I3
ssg63
g2613
sg56
(lp2620
g1136
asbasbasbag49
(g65
g51
NtRp2621
(dp2622
g54
(dp2623
sg63
g2428
sg56
(lp2624
g49
(g70
g51
NtRp2625
(dp2626
g54
(dp2627
g74
g75
ssg63
g2621
sg56
(lp2628
S'HTTP_USER_AGENT'
p2629
asbag49
(g70
g51
NtRp2630
(dp2631
g54
(dp2632
g81
g82
ssg63
g2621
sg56
(lp2633
S':'
asbag49
(g70
g51
NtRp2634
(dp2635
g54
(dp2636
sg63
g2621
sg56
(lp2637
g49
(g50
g51
NtRp2638
(dp2639
g54
(dp2640
g62
I3
ssg63
g2634
sg56
(lp2641
g1158
asbasbasbag49
(g65
g51
NtRp2642
(dp2643
g54
(dp2644
sg63
g2428
sg56
(lp2645
g49
(g70
g51
NtRp2646
(dp2647
g54
(dp2648
g74
g75
ssg63
g2642
sg56
(lp2649
S'PATH_INFO'
p2650
asbag49
(g70
g51
NtRp2651
(dp2652
g54
(dp2653
g81
g82
ssg63
g2642
sg56
(lp2654
S':'
asbag49
(g70
g51
NtRp2655
(dp2656
g54
(dp2657
sg63
g2642
sg56
(lp2658
g49
(g50
g51
NtRp2659
(dp2660
g54
(dp2661
g62
I3
ssg63
g2655
sg56
(lp2662
g1222
asbasbasbag49
(g65
g51
NtRp2663
(dp2664
g54
(dp2665
sg63
g2428
sg56
(lp2666
g49
(g70
g51
NtRp2667
(dp2668
g54
(dp2669
g74
g75
ssg63
g2663
sg56
(lp2670
S'QUERY_STRING'
p2671
asbag49
(g70
g51
NtRp2672
(dp2673
g54
(dp2674
g81
g82
ssg63
g2663
sg56
(lp2675
S':'
asbag49
(g70
g51
NtRp2676
(dp2677
g54
(dp2678
sg63
g2663
sg56
(lp2679
g49
(g50
g51
NtRp2680
(dp2681
g54
(dp2682
g62
I3
ssg63
g2676
sg56
(lp2683
S''
asbasbasbag49
(g65
g51
NtRp2684
(dp2685
g54
(dp2686
sg63
g2428
sg56
(lp2687
g49
(g70
g51
NtRp2688
(dp2689
g54
(dp2690
g74
g75
ssg63
g2684
sg56
(lp2691
S'REMOTE_ADDR'
p2692
asbag49
(g70
g51
NtRp2693
(dp2694
g54
(dp2695
g81
g82
ssg63
g2684
sg56
(lp2696
S':'
asbag49
(g70
g51
NtRp2697
(dp2698
g54
(dp2699
sg63
g2684
sg56
(lp2700
g49
(g50
g51
NtRp2701
(dp2702
g54
(dp2703
g62
I3
ssg63
g2697
sg56
(lp2704
g208
asbasbasbag49
(g65
g51
NtRp2705
(dp2706
g54
(dp2707
sg63
g2428
sg56
(lp2708
g49
(g70
g51
NtRp2709
(dp2710
g54
(dp2711
g74
g75
ssg63
g2705
sg56
(lp2712
S'REMOTE_PORT'
p2713
asbag49
(g70
g51
NtRp2714
(dp2715
g54
(dp2716
g81
g82
ssg63
g2705
sg56
(lp2717
S':'
asbag49
(g70
g51
NtRp2718
(dp2719
g54
(dp2720
sg63
g2705
sg56
(lp2721
g49
(g50
g51
NtRp2722
(dp2723
g54
(dp2724
g62
I3
ssg63
g2718
sg56
(lp2725
g1286
asbasbasbag49
(g65
g51
NtRp2726
(dp2727
g54
(dp2728
sg63
g2428
sg56
(lp2729
g49
(g70
g51
NtRp2730
(dp2731
g54
(dp2732
g74
g75
ssg63
g2726
sg56
(lp2733
S'REQUEST_METHOD'
p2734
asbag49
(g70
g51
NtRp2735
(dp2736
g54
(dp2737
g81
g82
ssg63
g2726
sg56
(lp2738
S':'
asbag49
(g70
g51
NtRp2739
(dp2740
g54
(dp2741
sg63
g2726
sg56
(lp2742
g49
(g50
g51
NtRp2743
(dp2744
g54
(dp2745
g62
I3
ssg63
g2739
sg56
(lp2746
g1308
asbasbasbag49
(g65
g51
NtRp2747
(dp2748
g54
(dp2749
sg63
g2428
sg56
(lp2750
g49
(g70
g51
NtRp2751
(dp2752
g54
(dp2753
g74
g75
ssg63
g2747
sg56
(lp2754
S'SCRIPT_NAME'
p2755
asbag49
(g70
g51
NtRp2756
(dp2757
g54
(dp2758
g81
g82
ssg63
g2747
sg56
(lp2759
S':'
asbag49
(g70
g51
NtRp2760
(dp2761
g54
(dp2762
sg63
g2747
sg56
(lp2763
g49
(g50
g51
NtRp2764
(dp2765
g54
(dp2766
g62
I3
ssg63
g2760
sg56
(lp2767
S''
asbasbasbag49
(g65
g51
NtRp2768
(dp2769
g54
(dp2770
sg63
g2428
sg56
(lp2771
g49
(g70
g51
NtRp2772
(dp2773
g54
(dp2774
g74
g75
ssg63
g2768
sg56
(lp2775
S'SERVER_NAME'
p2776
asbag49
(g70
g51
NtRp2777
(dp2778
g54
(dp2779
g81
g82
ssg63
g2768
sg56
(lp2780
S':'
asbag49
(g70
g51
NtRp2781
(dp2782
g54
(dp2783
sg63
g2768
sg56
(lp2784
g49
(g50
g51
NtRp2785
(dp2786
g54
(dp2787
g62
I3
ssg63
g2781
sg56
(lp2788
g1351
asbasbasbag49
(g65
g51
NtRp2789
(dp2790
g54
(dp2791
sg63
g2428
sg56
(lp2792
g49
(g70
g51
NtRp2793
(dp2794
g54
(dp2795
g74
g75
ssg63
g2789
sg56
(lp2796
S'SERVER_PORT'
p2797
asbag49
(g70
g51
NtRp2798
(dp2799
g54
(dp2800
g81
g82
ssg63
g2789
sg56
(lp2801
S':'
asbag49
(g70
g51
NtRp2802
(dp2803
g54
(dp2804
sg63
g2789
sg56
(lp2805
g49
(g50
g51
NtRp2806
(dp2807
g54
(dp2808
g62
I3
ssg63
g2802
sg56
(lp2809
g1373
asbasbasbag49
(g65
g51
NtRp2810
(dp2811
g54
(dp2812
sg63
g2428
sg56
(lp2813
g49
(g70
g51
NtRp2814
(dp2815
g54
(dp2816
g74
g75
ssg63
g2810
sg56
(lp2817
S'SERVER_PROTOCOL'
p2818
asbag49
(g70
g51
NtRp2819
(dp2820
g54
(dp2821
g81
g82
ssg63
g2810
sg56
(lp2822
S':'
asbag49
(g70
g51
NtRp2823
(dp2824
g54
(dp2825
sg63
g2810
sg56
(lp2826
g49
(g50
g51
NtRp2827
(dp2828
g54
(dp2829
g62
I3
ssg63
g2823
sg56
(lp2830
g1395
asbasbasbag49
(g65
g51
NtRp2831
(dp2832
g54
(dp2833
sg63
g2428
sg56
(lp2834
g49
(g70
g51
NtRp2835
(dp2836
g54
(dp2837
g74
g75
ssg63
g2831
sg56
(lp2838
S'SERVER_SOFTWARE'
p2839
asbag49
(g70
g51
NtRp2840
(dp2841
g54
(dp2842
g81
g82
ssg63
g2831
sg56
(lp2843
S':'
asbag49
(g70
g51
NtRp2844
(dp2845
g54
(dp2846
sg63
g2831
sg56
(lp2847
g49
(g50
g51
NtRp2848
(dp2849
g54
(dp2850
g62
I3
ssg63
g2844
sg56
(lp2851
g1417
asbasbasbag49
(g65
g51
NtRp2852
(dp2853
g54
(dp2854
sg63
g2428
sg56
(lp2855
g49
(g70
g51
NtRp2856
(dp2857
g54
(dp2858
g74
g75
ssg63
g2852
sg56
(lp2859
S'wsgi.errors'
p2860
asbag49
(g70
g51
NtRp2861
(dp2862
g54
(dp2863
g81
g82
ssg63
g2852
sg56
(lp2864
S':'
asbag49
(g70
g51
NtRp2865
(dp2866
g54
(dp2867
sg63
g2852
sg56
(lp2868
g49
(g50
g51
NtRp2869
(dp2870
g54
(dp2871
g62
I3
ssg63
g2865
sg56
(lp2872
S"<open file '<stderr>', mode 'w' at 0x002C00B0>"
p2873
asbasbasbag49
(g65
g51
NtRp2874
(dp2875
g54
(dp2876
sg63
g2428
sg56
(lp2877
g49
(g70
g51
NtRp2878
(dp2879
g54
(dp2880
g74
g75
ssg63
g2874
sg56
(lp2881
S'wsgi.file_wrapper'
p2882
asbag49
(g70
g51
NtRp2883
(dp2884
g54
(dp2885
g81
g82
ssg63
g2874
sg56
(lp2886
S':'
asbag49
(g70
g51
NtRp2887
(dp2888
g54
(dp2889
sg63
g2874
sg56
(lp2890
g49
(g50
g51
NtRp2891
(dp2892
g54
(dp2893
g62
I3
ssg63
g2887
sg56
(lp2894
S'<class wsgiref.util.FileWrapper at 0x0210FCF0>'
p2895
asbasbasbag49
(g65
g51
NtRp2896
(dp2897
g54
(dp2898
sg63
g2428
sg56
(lp2899
g49
(g70
g51
NtRp2900
(dp2901
g54
(dp2902
g74
g75
ssg63
g2896
sg56
(lp2903
S'wsgi.input'
p2904
asbag49
(g70
g51
NtRp2905
(dp2906
g54
(dp2907
g81
g82
ssg63
g2896
sg56
(lp2908
S':'
asbag49
(g70
g51
NtRp2909
(dp2910
g54
(dp2911
sg63
g2896
sg56
(lp2912
g49
(g50
g51
NtRp2913
(dp2914
g54
(dp2915
g62
I3
ssg63
g2909
sg56
(lp2916
S'<cStringIO.StringO object at 0x06D60760>'
p2917
asbasbasbag49
(g65
g51
NtRp2918
(dp2919
g54
(dp2920
sg63
g2428
sg56
(lp2921
g49
(g70
g51
NtRp2922
(dp2923
g54
(dp2924
g74
g75
ssg63
g2918
sg56
(lp2925
S'wsgi.multiprocess'
p2926
asbag49
(g70
g51
NtRp2927
(dp2928
g54
(dp2929
g81
g82
ssg63
g2918
sg56
(lp2930
S':'
asbag49
(g70
g51
NtRp2931
(dp2932
g54
(dp2933
sg63
g2918
sg56
(lp2934
g49
(g50
g51
NtRp2935
(dp2936
g54
(dp2937
g62
I3
ssg63
g2931
sg56
(lp2938
g92
asbasbasbag49
(g65
g51
NtRp2939
(dp2940
g54
(dp2941
sg63
g2428
sg56
(lp2942
g49
(g70
g51
NtRp2943
(dp2944
g54
(dp2945
g74
g75
ssg63
g2939
sg56
(lp2946
S'wsgi.multithread'
p2947
asbag49
(g70
g51
NtRp2948
(dp2949
g54
(dp2950
g81
g82
ssg63
g2939
sg56
(lp2951
S':'
asbag49
(g70
g51
NtRp2952
(dp2953
g54
(dp2954
sg63
g2939
sg56
(lp2955
g49
(g50
g51
NtRp2956
(dp2957
g54
(dp2958
g62
I3
ssg63
g2952
sg56
(lp2959
g1657
asbasbasbag49
(g65
g51
NtRp2960
(dp2961
g54
(dp2962
sg63
g2428
sg56
(lp2963
g49
(g70
g51
NtRp2964
(dp2965
g54
(dp2966
g74
g75
ssg63
g2960
sg56
(lp2967
S'wsgi.run_once'
p2968
asbag49
(g70
g51
NtRp2969
(dp2970
g54
(dp2971
g81
g82
ssg63
g2960
sg56
(lp2972
S':'
asbag49
(g70
g51
NtRp2973
(dp2974
g54
(dp2975
sg63
g2960
sg56
(lp2976
g49
(g50
g51
NtRp2977
(dp2978
g54
(dp2979
g62
I3
ssg63
g2973
sg56
(lp2980
g92
asbasbasbag49
(g65
g51
NtRp2981
(dp2982
g54
(dp2983
sg63
g2428
sg56
(lp2984
g49
(g70
g51
NtRp2985
(dp2986
g54
(dp2987
g74
g75
ssg63
g2981
sg56
(lp2988
S'wsgi.url_scheme'
p2989
asbag49
(g70
g51
NtRp2990
(dp2991
g54
(dp2992
g81
g82
ssg63
g2981
sg56
(lp2993
S':'
asbag49
(g70
g51
NtRp2994
(dp2995
g54
(dp2996
sg63
g2981
sg56
(lp2997
g49
(g50
g51
NtRp2998
(dp2999
g54
(dp3000
g62
I3
ssg63
g2994
sg56
(lp3001
g1700
asbasbasbag49
(g65
g51
NtRp3002
(dp3003
g54
(dp3004
sg63
g2428
sg56
(lp3005
g49
(g70
g51
NtRp3006
(dp3007
g54
(dp3008
g74
g75
ssg63
g3002
sg56
(lp3009
S'wsgi.version'
p3010
asbag49
(g70
g51
NtRp3011
(dp3012
g54
(dp3013
g81
g82
ssg63
g3002
sg56
(lp3014
S':'
asbag49
(g70
g51
NtRp3015
(dp3016
g54
(dp3017
sg63
g3002
sg56
(lp3018
g49
(g50
g51
NtRp3019
(dp3020
g54
(dp3021
g62
I3
ssg63
g3015
sg56
(lp3022
S'1'
asbasbasbasbasbasbasbasbasbasbasbasbasbsS'frames'
p3023
(lp3024
(dp3025
S'file'
p3026
S'D:\\UCZELNIA\\ELKA\\tin\\web2py\\web2py_win\\web2py\\gluon\\restricted.py'
p3027
sS'dump'
p3028
(dp3029
sS'lnum'
p3030
I204
sS'lines'
p3031
(dp3032
sS'call'
p3033
S"(code='# -*- coding: utf-8 -*-\\n\\n# #####################...lse)\\n\\n\\n\\n\\nresponse._vars=response._caller(select)\\n', environment={'A': <class 'gluon.html.A'>, 'Auth': <class 'gluon.tools.Auth'>, 'B': <class 'gluon.html.B'>, 'BEAUTIFY': <class 'gluon.html.BEAUTIFY'>, 'BODY': <class 'gluon.html.BODY'>, 'BR': <class 'gluon.html.BR'>, 'BUTTON': <class 'gluon.html.BUTTON'>, 'CAT': <class 'gluon.html.CAT'>, 'CENTER': <class 'gluon.html.CENTER'>, 'CLEANUP': <class 'gluon.validators.CLEANUP'>, ...}, layer=r'D:\\UCZELNIA\\ELKA\\tin\\web2py\\web2py_win\\web2py\\applications\\ASA\\controllers/appadmin.py')"
p3034
sS'func'
p3035
S'restricted'
p3036
sa(dp3037
g3026
S'D:\\UCZELNIA\\ELKA\\tin\\web2py\\web2py_win\\web2py\\applications\\ASA\\controllers\\appadmin.py'
p3038
sg3028
(dp3039
sg3030
I433
sg3031
(dp3040
I422
S''
sI423
S"    ram['keys'] = key_table(ram['keys'])"
p3041
sI424
S"    disk['keys'] = key_table(disk['keys'])"
p3042
sI425
S"    total['keys'] = key_table(total['keys'])"
p3043
sI426
S''
sI427
S'    return dict(form=form, total=total,'
p3044
sI428
S'                ram=ram, disk=disk, object_stats=hp != False)'
p3045
sI429
S''
sI430
S''
sI431
S''
ssg3033
S'()'
p3046
sg3035
S'<module>'
p3047
sa(dp3048
g3026
S'D:\\UCZELNIA\\ELKA\\tin\\web2py\\web2py_win\\web2py\\gluon\\globals.py'
p3049
sg3028
(dp3050
sg3030
I172
sg3031
(dp3051
sg3033
S'(f=<function select at 0x05EBF9F0>)'
p3052
sg3035
S'<lambda>'
p3053
sa(dp3054
g3026
S'D:\\UCZELNIA\\ELKA\\tin\\web2py\\web2py_win\\web2py\\applications\\ASA\\controllers\\appadmin.py'
p3055
sg3028
(dp3056
sg3030
I164
sg3031
(dp3057
I160
S'    import re'
p3058
sI161
S'    db = get_database(request)'
p3059
sI162
S'    dbname = request.args[0]'
p3060
sI163
S"    regex = re.compile('(?P<table>\\w+)\\.(?P<field>\\w+)=(?P<value>\\d+)')"
p3061
sI164
S"    if len(request.args)>1 and hasattr(db[request.args[1]],'_primarykey'):"
p3062
sI165
S"        regex = re.compile('(?P<table>\\w+)\\.(?P<field>\\w+)=(?P<value>.+)')"
p3063
sI166
S'    if request.vars.query:'
p3064
sI167
S'        match = regex.match(request.vars.query)'
p3065
sI168
S'        if match:'
p3066
sI159
S'def select():'
p3067
ssg3033
S'()'
p3068
sg3035
S'select'
p3069
sa(dp3070
g3026
S'D:\\UCZELNIA\\ELKA\\tin\\web2py\\web2py_win\\web2py\\gluon\\dal.py'
p3071
sg3028
(dp3072
sg3030
I5113
sg3031
(dp3073
sg3033
S"(self=<DAL {'auth_event': <Table {'origin': <gluon.dal...'_id': <gluon.dal.Field object at 0x06D60CB0>}>}>, key='index')"
p3074
sg3035
g20
sasS'pyver'
p3075
S'Python 2.5.4: D:\\UCZELNIA\\ELKA\\tin\\web2py\\web2py_win\\web2py\\web2py.exe'
p3076
sS'session'
p3077
g49
(g50
g51
NtRp3078
(dp3079
g54
(dp3080
sg56
(lp3081
g49
(g58
g51
NtRp3082
(dp3083
g54
(dp3084
g62
I5
ssg63
Nsg56
(lp3085
g49
(g65
g51
NtRp3086
(dp3087
g54
(dp3088
sg63
g3082
sg56
(lp3089
g49
(g70
g51
NtRp3090
(dp3091
g54
(dp3092
g74
g75
ssg63
g3086
sg56
(lp3093
S'last_query'
p3094
asbag49
(g70
g51
NtRp3095
(dp3096
g54
(dp3097
g81
g82
ssg63
g3086
sg56
(lp3098
S':'
asbag49
(g70
g51
NtRp3099
(dp3100
g54
(dp3101
sg63
g3086
sg56
(lp3102
g49
(g50
g51
NtRp3103
(dp3104
g54
(dp3105
g62
I5
ssg63
g3099
sg56
(lp3106
S'db.log.id_pracownik==1'
p3107
asbasbasbasbasbsS'etype'
p3108
S"<type 'exceptions.KeyError'>"
p3109
sS'date'
p3110
S'Mon Jan 09 18:04:14 2012'
p3111
sS'response'
p3112
g49
(g50
g51
NtRp3113
(dp3114
g54
(dp3115
sg56
(lp3116
g49
(g58
g51
NtRp3117
(dp3118
g54
(dp3119
g62
I5
ssg63
Nsg56
(lp3120
g49
(g65
g51
NtRp3121
(dp3122
g54
(dp3123
sg63
g3117
sg56
(lp3124
g49
(g70
g51
NtRp3125
(dp3126
g54
(dp3127
g74
g75
ssg63
g3121
sg56
(lp3128
g173
asbag49
(g70
g51
NtRp3129
(dp3130
g54
(dp3131
g81
g82
ssg63
g3121
sg56
(lp3132
S':'
asbag49
(g70
g51
NtRp3133
(dp3134
g54
(dp3135
sg63
g3121
sg56
(lp3136
g49
(g50
g51
NtRp3137
(dp3138
g54
(dp3139
g62
I5
ssg63
g3133
sg56
(lp3140
S'<cStringIO.StringO object at 0x05F33720>'
p3141
asbasbasbag49
(g65
g51
NtRp3142
(dp3143
g54
(dp3144
sg63
g3117
sg56
(lp3145
g49
(g70
g51
NtRp3146
(dp3147
g54
(dp3148
g74
g75
ssg63
g3142
sg56
(lp3149
g239
asbag49
(g70
g51
NtRp3150
(dp3151
g54
(dp3152
g81
g82
ssg63
g3142
sg56
(lp3153
S':'
asbag49
(g70
g51
NtRp3154
(dp3155
g54
(dp3156
sg63
g3142
sg56
(lp3157
g49
(g50
g51
NtRp3158
(dp3159
g54
(dp3160
g62
I5
ssg63
g3154
sg56
(lp3161
g49
(g58
g51
NtRp3162
(dp3163
g54
(dp3164
g62
I4
ssg63
Nsg56
(lp3165
g49
(g65
g51
NtRp3166
(dp3167
g54
(dp3168
sg63
g3162
sg56
(lp3169
g49
(g70
g51
NtRp3170
(dp3171
g54
(dp3172
g74
g75
ssg63
g3166
sg56
(lp3173
S'session_id_asa'
p3174
asbag49
(g70
g51
NtRp3175
(dp3176
g54
(dp3177
g81
g82
ssg63
g3166
sg56
(lp3178
S':'
asbag49
(g70
g51
NtRp3179
(dp3180
g54
(dp3181
sg63
g3166
sg56
(lp3182
g49
(g50
g51
NtRp3183
(dp3184
g54
(dp3185
g62
I4
ssg63
g3179
sg56
(lp3186
g49
(g58
g51
NtRp3187
(dp3188
g54
(dp3189
g62
I3
ssg63
Nsg56
(lp3190
g49
(g65
g51
NtRp3191
(dp3192
g54
(dp3193
sg63
g3187
sg56
(lp3194
g49
(g70
g51
NtRp3195
(dp3196
g54
(dp3197
g74
g75
ssg63
g3191
sg56
(lp3198
g289
asbag49
(g70
g51
NtRp3199
(dp3200
g54
(dp3201
g81
g82
ssg63
g3191
sg56
(lp3202
S':'
asbag49
(g70
g51
NtRp3203
(dp3204
g54
(dp3205
sg63
g3191
sg56
(lp3206
g49
(g50
g51
NtRp3207
(dp3208
g54
(dp3209
g62
I3
ssg63
g3203
sg56
(lp3210
S''
asbasbasbag49
(g65
g51
NtRp3211
(dp3212
g54
(dp3213
sg63
g3187
sg56
(lp3214
g49
(g70
g51
NtRp3215
(dp3216
g54
(dp3217
g74
g75
ssg63
g3211
sg56
(lp3218
g310
asbag49
(g70
g51
NtRp3219
(dp3220
g54
(dp3221
g81
g82
ssg63
g3211
sg56
(lp3222
S':'
asbag49
(g70
g51
NtRp3223
(dp3224
g54
(dp3225
sg63
g3211
sg56
(lp3226
g49
(g50
g51
NtRp3227
(dp3228
g54
(dp3229
g62
I3
ssg63
g3223
sg56
(lp3230
S''
asbasbasbag49
(g65
g51
NtRp3231
(dp3232
g54
(dp3233
sg63
g3187
sg56
(lp3234
g49
(g70
g51
NtRp3235
(dp3236
g54
(dp3237
g74
g75
ssg63
g3231
sg56
(lp3238
g331
asbag49
(g70
g51
NtRp3239
(dp3240
g54
(dp3241
g81
g82
ssg63
g3231
sg56
(lp3242
S':'
asbag49
(g70
g51
NtRp3243
(dp3244
g54
(dp3245
sg63
g3231
sg56
(lp3246
g49
(g50
g51
NtRp3247
(dp3248
g54
(dp3249
g62
I3
ssg63
g3243
sg56
(lp3250
S''
asbasbasbag49
(g65
g51
NtRp3251
(dp3252
g54
(dp3253
sg63
g3187
sg56
(lp3254
g49
(g70
g51
NtRp3255
(dp3256
g54
(dp3257
g74
g75
ssg63
g3251
sg56
(lp3258
g352
asbag49
(g70
g51
NtRp3259
(dp3260
g54
(dp3261
g81
g82
ssg63
g3251
sg56
(lp3262
S':'
asbag49
(g70
g51
NtRp3263
(dp3264
g54
(dp3265
sg63
g3251
sg56
(lp3266
g49
(g50
g51
NtRp3267
(dp3268
g54
(dp3269
g62
I3
ssg63
g3263
sg56
(lp3270
S''
asbasbasbag49
(g65
g51
NtRp3271
(dp3272
g54
(dp3273
sg63
g3187
sg56
(lp3274
g49
(g70
g51
NtRp3275
(dp3276
g54
(dp3277
g74
g75
ssg63
g3271
sg56
(lp3278
g373
asbag49
(g70
g51
NtRp3279
(dp3280
g54
(dp3281
g81
g82
ssg63
g3271
sg56
(lp3282
S':'
asbag49
(g70
g51
NtRp3283
(dp3284
g54
(dp3285
sg63
g3271
sg56
(lp3286
g49
(g50
g51
NtRp3287
(dp3288
g54
(dp3289
g62
I3
ssg63
g3283
sg56
(lp3290
S'/'
asbasbasbag49
(g65
g51
NtRp3291
(dp3292
g54
(dp3293
sg63
g3187
sg56
(lp3294
g49
(g70
g51
NtRp3295
(dp3296
g54
(dp3297
g74
g75
ssg63
g3291
sg56
(lp3298
g394
asbag49
(g70
g51
NtRp3299
(dp3300
g54
(dp3301
g81
g82
ssg63
g3291
sg56
(lp3302
S':'
asbag49
(g70
g51
NtRp3303
(dp3304
g54
(dp3305
sg63
g3291
sg56
(lp3306
g49
(g50
g51
NtRp3307
(dp3308
g54
(dp3309
g62
I3
ssg63
g3303
sg56
(lp3310
S''
asbasbasbag49
(g65
g51
NtRp3311
(dp3312
g54
(dp3313
sg63
g3187
sg56
(lp3314
g49
(g70
g51
NtRp3315
(dp3316
g54
(dp3317
g74
g75
ssg63
g3311
sg56
(lp3318
g415
asbag49
(g70
g51
NtRp3319
(dp3320
g54
(dp3321
g81
g82
ssg63
g3311
sg56
(lp3322
S':'
asbag49
(g70
g51
NtRp3323
(dp3324
g54
(dp3325
sg63
g3311
sg56
(lp3326
g49
(g50
g51
NtRp3327
(dp3328
g54
(dp3329
g62
I3
ssg63
g3323
sg56
(lp3330
S''
asbasbasbasbasbasbasbasbasbasbasbag49
(g65
g51
NtRp3331
(dp3332
g54
(dp3333
sg63
g3117
sg56
(lp3334
g49
(g70
g51
NtRp3335
(dp3336
g54
(dp3337
g74
g75
ssg63
g3331
sg56
(lp3338
S'files'
p3339
asbag49
(g70
g51
NtRp3340
(dp3341
g54
(dp3342
g81
g82
ssg63
g3331
sg56
(lp3343
S':'
asbag49
(g70
g51
NtRp3344
(dp3345
g54
(dp3346
sg63
g3331
sg56
(lp3347
g49
(g50
g51
NtRp3348
(dp3349
g54
(dp3350
g62
I5
ssg63
g3344
sg56
(lp3351
g49
(g58
g51
NtRp3352
(dp3353
g54
(dp3354
g62
I4
ssg63
Nsg56
(lp3355
sbasbasbasbag49
(g65
g51
NtRp3356
(dp3357
g54
(dp3358
sg63
g3117
sg56
(lp3359
g49
(g70
g51
NtRp3360
(dp3361
g54
(dp3362
g74
g75
ssg63
g3356
sg56
(lp3363
S'flash'
p3364
asbag49
(g70
g51
NtRp3365
(dp3366
g54
(dp3367
g81
g82
ssg63
g3356
sg56
(lp3368
S':'
asbag49
(g70
g51
NtRp3369
(dp3370
g54
(dp3371
sg63
g3356
sg56
(lp3372
g49
(g50
g51
NtRp3373
(dp3374
g54
(dp3375
g62
I5
ssg63
g3369
sg56
(lp3376
S''
asbasbasbag49
(g65
g51
NtRp3377
(dp3378
g54
(dp3379
sg63
g3117
sg56
(lp3380
g49
(g70
g51
NtRp3381
(dp3382
g54
(dp3383
g74
g75
ssg63
g3377
sg56
(lp3384
S'generic_patterns'
p3385
asbag49
(g70
g51
NtRp3386
(dp3387
g54
(dp3388
g81
g82
ssg63
g3377
sg56
(lp3389
S':'
asbag49
(g70
g51
NtRp3390
(dp3391
g54
(dp3392
sg63
g3377
sg56
(lp3393
g49
(g50
g51
NtRp3394
(dp3395
g54
(dp3396
g62
I5
ssg63
g3390
sg56
(lp3397
g49
(g58
g51
NtRp3398
(dp3399
g54
(dp3400
g62
I4
ssg63
Nsg56
(lp3401
sbasbasbasbag49
(g65
g51
NtRp3402
(dp3403
g54
(dp3404
sg63
g3117
sg56
(lp3405
g49
(g70
g51
NtRp3406
(dp3407
g54
(dp3408
g74
g75
ssg63
g3402
sg56
(lp3409
S'headers'
p3410
asbag49
(g70
g51
NtRp3411
(dp3412
g54
(dp3413
g81
g82
ssg63
g3402
sg56
(lp3414
S':'
asbag49
(g70
g51
NtRp3415
(dp3416
g54
(dp3417
sg63
g3402
sg56
(lp3418
g49
(g50
g51
NtRp3419
(dp3420
g54
(dp3421
g62
I5
ssg63
g3415
sg56
(lp3422
g49
(g58
g51
NtRp3423
(dp3424
g54
(dp3425
g62
I4
ssg63
Nsg56
(lp3426
g49
(g65
g51
NtRp3427
(dp3428
g54
(dp3429
sg63
g3423
sg56
(lp3430
g49
(g70
g51
NtRp3431
(dp3432
g54
(dp3433
g74
g75
ssg63
g3427
sg56
(lp3434
S'Cache-Control'
p3435
asbag49
(g70
g51
NtRp3436
(dp3437
g54
(dp3438
g81
g82
ssg63
g3427
sg56
(lp3439
S':'
asbag49
(g70
g51
NtRp3440
(dp3441
g54
(dp3442
sg63
g3427
sg56
(lp3443
g49
(g50
g51
NtRp3444
(dp3445
g54
(dp3446
g62
I4
ssg63
g3440
sg56
(lp3447
S'no-store, no-cache, must-revalidate, post-check=0, pre-check=0'
p3448
asbasbasbag49
(g65
g51
NtRp3449
(dp3450
g54
(dp3451
sg63
g3423
sg56
(lp3452
g49
(g70
g51
NtRp3453
(dp3454
g54
(dp3455
g74
g75
ssg63
g3449
sg56
(lp3456
S'Content-Type'
p3457
asbag49
(g70
g51
NtRp3458
(dp3459
g54
(dp3460
g81
g82
ssg63
g3449
sg56
(lp3461
S':'
asbag49
(g70
g51
NtRp3462
(dp3463
g54
(dp3464
sg63
g3449
sg56
(lp3465
g49
(g50
g51
NtRp3466
(dp3467
g54
(dp3468
g62
I4
ssg63
g3462
sg56
(lp3469
S'text/html; charset=utf-8'
p3470
asbasbasbag49
(g65
g51
NtRp3471
(dp3472
g54
(dp3473
sg63
g3423
sg56
(lp3474
g49
(g70
g51
NtRp3475
(dp3476
g54
(dp3477
g74
g75
ssg63
g3471
sg56
(lp3478
S'Expires'
p3479
asbag49
(g70
g51
NtRp3480
(dp3481
g54
(dp3482
g81
g82
ssg63
g3471
sg56
(lp3483
S':'
asbag49
(g70
g51
NtRp3484
(dp3485
g54
(dp3486
sg63
g3471
sg56
(lp3487
g49
(g50
g51
NtRp3488
(dp3489
g54
(dp3490
g62
I4
ssg63
g3484
sg56
(lp3491
S'Mon, 09 Jan 2012 17:04:14 GMT'
p3492
asbasbasbag49
(g65
g51
NtRp3493
(dp3494
g54
(dp3495
sg63
g3423
sg56
(lp3496
g49
(g70
g51
NtRp3497
(dp3498
g54
(dp3499
g74
g75
ssg63
g3493
sg56
(lp3500
S'Pragma'
p3501
asbag49
(g70
g51
NtRp3502
(dp3503
g54
(dp3504
g81
g82
ssg63
g3493
sg56
(lp3505
S':'
asbag49
(g70
g51
NtRp3506
(dp3507
g54
(dp3508
sg63
g3493
sg56
(lp3509
g49
(g50
g51
NtRp3510
(dp3511
g54
(dp3512
g62
I4
ssg63
g3506
sg56
(lp3513
S'no-cache'
p3514
asbasbasbag49
(g65
g51
NtRp3515
(dp3516
g54
(dp3517
sg63
g3423
sg56
(lp3518
g49
(g70
g51
NtRp3519
(dp3520
g54
(dp3521
g74
g75
ssg63
g3515
sg56
(lp3522
S'X-Powered-By'
p3523
asbag49
(g70
g51
NtRp3524
(dp3525
g54
(dp3526
g81
g82
ssg63
g3515
sg56
(lp3527
S':'
asbag49
(g70
g51
NtRp3528
(dp3529
g54
(dp3530
sg63
g3515
sg56
(lp3531
g49
(g50
g51
NtRp3532
(dp3533
g54
(dp3534
g62
I4
ssg63
g3528
sg56
(lp3535
S'web2py'
p3536
asbasbasbasbasbasbasbag49
(g65
g51
NtRp3537
(dp3538
g54
(dp3539
sg63
g3117
sg56
(lp3540
g49
(g70
g51
NtRp3541
(dp3542
g54
(dp3543
g74
g75
ssg63
g3537
sg56
(lp3544
S'menu'
p3545
asbag49
(g70
g51
NtRp3546
(dp3547
g54
(dp3548
g81
g82
ssg63
g3537
sg56
(lp3549
S':'
asbag49
(g70
g51
NtRp3550
(dp3551
g54
(dp3552
sg63
g3537
sg56
(lp3553
g49
(g50
g51
NtRp3554
(dp3555
g54
(dp3556
g62
I5
ssg63
g3550
sg56
(lp3557
g49
(g58
g51
NtRp3558
(dp3559
g54
(dp3560
g62
I4
ssg63
Nsg56
(lp3561
g49
(g65
g51
NtRp3562
(dp3563
g54
(dp3564
sg63
g3558
sg56
(lp3565
g49
(g70
g51
NtRp3566
(dp3567
g54
(dp3568
sg63
g3562
sg56
(lp3569
g49
(g50
g51
NtRp3570
(dp3571
g54
(dp3572
g62
I4
ssg63
g3566
sg56
(lp3573
g49
(g58
g51
NtRp3574
(dp3575
g54
(dp3576
g62
I3
ssg63
Nsg56
(lp3577
g49
(g65
g51
NtRp3578
(dp3579
g54
(dp3580
sg63
g3574
sg56
(lp3581
g49
(g70
g51
NtRp3582
(dp3583
g54
(dp3584
sg63
g3578
sg56
(lp3585
g49
(g50
g51
NtRp3586
(dp3587
g54
(dp3588
g62
I3
ssg63
g3582
sg56
(lp3589
cgluon.languages
lazyT_unpickle
p3590
(S't\t\x00\x00\x00projektuj'
tRp3591
asbasbasbag49
(g65
g51
NtRp3592
(dp3593
g54
(dp3594
sg63
g3574
sg56
(lp3595
g49
(g70
g51
NtRp3596
(dp3597
g54
(dp3598
sg63
g3592
sg56
(lp3599
g49
(g50
g51
NtRp3600
(dp3601
g54
(dp3602
g62
I3
ssg63
g3596
sg56
(lp3603
g92
asbasbasbag49
(g65
g51
NtRp3604
(dp3605
g54
(dp3606
sg63
g3574
sg56
(lp3607
g49
(g70
g51
NtRp3608
(dp3609
g54
(dp3610
sg63
g3604
sg56
(lp3611
g49
(g50
g51
NtRp3612
(dp3613
g54
(dp3614
g62
I3
ssg63
g3608
sg56
(lp3615
S'/admin/default/design/ASA'
p3616
asbasbasbasbasbasbasbag49
(g65
g51
NtRp3617
(dp3618
g54
(dp3619
sg63
g3558
sg56
(lp3620
g49
(g70
g51
NtRp3621
(dp3622
g54
(dp3623
sg63
g3617
sg56
(lp3624
g49
(g50
g51
NtRp3625
(dp3626
g54
(dp3627
g62
I4
ssg63
g3621
sg56
(lp3628
g49
(g58
g51
NtRp3629
(dp3630
g54
(dp3631
g62
I3
ssg63
Nsg56
(lp3632
g49
(g65
g51
NtRp3633
(dp3634
g54
(dp3635
sg63
g3629
sg56
(lp3636
g49
(g70
g51
NtRp3637
(dp3638
g54
(dp3639
sg63
g3633
sg56
(lp3640
g49
(g50
g51
NtRp3641
(dp3642
g54
(dp3643
g62
I3
ssg63
g3637
sg56
(lp3644
g3590
(S's\x0b\x00\x00\x00baza danych'
tRp3645
asbasbasbag49
(g65
g51
NtRp3646
(dp3647
g54
(dp3648
sg63
g3629
sg56
(lp3649
g49
(g70
g51
NtRp3650
(dp3651
g54
(dp3652
sg63
g3646
sg56
(lp3653
g49
(g50
g51
NtRp3654
(dp3655
g54
(dp3656
g62
I3
ssg63
g3650
sg56
(lp3657
g92
asbasbasbag49
(g65
g51
NtRp3658
(dp3659
g54
(dp3660
sg63
g3629
sg56
(lp3661
g49
(g70
g51
NtRp3662
(dp3663
g54
(dp3664
sg63
g3658
sg56
(lp3665
g49
(g50
g51
NtRp3666
(dp3667
g54
(dp3668
g62
I3
ssg63
g3662
sg56
(lp3669
S'/ASA/appadmin/index'
p3670
asbasbasbasbasbasbasbag49
(g65
g51
NtRp3671
(dp3672
g54
(dp3673
sg63
g3558
sg56
(lp3674
g49
(g70
g51
NtRp3675
(dp3676
g54
(dp3677
sg63
g3671
sg56
(lp3678
g49
(g50
g51
NtRp3679
(dp3680
g54
(dp3681
g62
I4
ssg63
g3675
sg56
(lp3682
g49
(g58
g51
NtRp3683
(dp3684
g54
(dp3685
g62
I3
ssg63
Nsg56
(lp3686
g49
(g65
g51
NtRp3687
(dp3688
g54
(dp3689
sg63
g3683
sg56
(lp3690
g49
(g70
g51
NtRp3691
(dp3692
g54
(dp3693
sg63
g3687
sg56
(lp3694
g49
(g50
g51
NtRp3695
(dp3696
g54
(dp3697
g62
I3
ssg63
g3691
sg56
(lp3698
g3590
(S't\x04\x00\x00\x00stan'
tRp3699
asbasbasbag49
(g65
g51
NtRp3700
(dp3701
g54
(dp3702
sg63
g3683
sg56
(lp3703
g49
(g70
g51
NtRp3704
(dp3705
g54
(dp3706
sg63
g3700
sg56
(lp3707
g49
(g50
g51
NtRp3708
(dp3709
g54
(dp3710
g62
I3
ssg63
g3704
sg56
(lp3711
g92
asbasbasbag49
(g65
g51
NtRp3712
(dp3713
g54
(dp3714
sg63
g3683
sg56
(lp3715
g49
(g70
g51
NtRp3716
(dp3717
g54
(dp3718
sg63
g3712
sg56
(lp3719
g49
(g50
g51
NtRp3720
(dp3721
g54
(dp3722
g62
I3
ssg63
g3716
sg56
(lp3723
S'/ASA/appadmin/state'
p3724
asbasbasbasbasbasbasbag49
(g65
g51
NtRp3725
(dp3726
g54
(dp3727
sg63
g3558
sg56
(lp3728
g49
(g70
g51
NtRp3729
(dp3730
g54
(dp3731
sg63
g3725
sg56
(lp3732
g49
(g50
g51
NtRp3733
(dp3734
g54
(dp3735
g62
I4
ssg63
g3729
sg56
(lp3736
g49
(g58
g51
NtRp3737
(dp3738
g54
(dp3739
g62
I3
ssg63
Nsg56
(lp3740
g49
(g65
g51
NtRp3741
(dp3742
g54
(dp3743
sg63
g3737
sg56
(lp3744
g49
(g70
g51
NtRp3745
(dp3746
g54
(dp3747
sg63
g3741
sg56
(lp3748
g49
(g50
g51
NtRp3749
(dp3750
g54
(dp3751
g62
I3
ssg63
g3745
sg56
(lp3752
g3590
(S't\x05\x00\x00\x00cache'
tRp3753
asbasbasbag49
(g65
g51
NtRp3754
(dp3755
g54
(dp3756
sg63
g3737
sg56
(lp3757
g49
(g70
g51
NtRp3758
(dp3759
g54
(dp3760
sg63
g3754
sg56
(lp3761
g49
(g50
g51
NtRp3762
(dp3763
g54
(dp3764
g62
I3
ssg63
g3758
sg56
(lp3765
g92
asbasbasbag49
(g65
g51
NtRp3766
(dp3767
g54
(dp3768
sg63
g3737
sg56
(lp3769
g49
(g70
g51
NtRp3770
(dp3771
g54
(dp3772
sg63
g3766
sg56
(lp3773
g49
(g50
g51
NtRp3774
(dp3775
g54
(dp3776
g62
I3
ssg63
g3770
sg56
(lp3777
S'/ASA/appadmin/ccache'
p3778
asbasbasbasbasbasbasbasbasbasbasbag49
(g65
g51
NtRp3779
(dp3780
g54
(dp3781
sg63
g3117
sg56
(lp3782
g49
(g70
g51
NtRp3783
(dp3784
g54
(dp3785
g74
g75
ssg63
g3779
sg56
(lp3786
S'menu_edit'
p3787
asbag49
(g70
g51
NtRp3788
(dp3789
g54
(dp3790
g81
g82
ssg63
g3779
sg56
(lp3791
S':'
asbag49
(g70
g51
NtRp3792
(dp3793
g54
(dp3794
sg63
g3779
sg56
(lp3795
g49
(g50
g51
NtRp3796
(dp3797
g54
(dp3798
g62
I5
ssg63
g3792
sg56
(lp3799
g49
(g58
g51
NtRp3800
(dp3801
g54
(dp3802
g62
I4
ssg63
Nsg56
(lp3803
g49
(g65
g51
NtRp3804
(dp3805
g54
(dp3806
sg63
g3800
sg56
(lp3807
g49
(g70
g51
NtRp3808
(dp3809
g54
(dp3810
sg63
g3804
sg56
(lp3811
g49
(g50
g51
NtRp3812
(dp3813
g54
(dp3814
g62
I4
ssg63
g3808
sg56
(lp3815
g49
(g58
g51
NtRp3816
(dp3817
g54
(dp3818
g62
I3
ssg63
Nsg56
(lp3819
g49
(g65
g51
NtRp3820
(dp3821
g54
(dp3822
sg63
g3816
sg56
(lp3823
g49
(g70
g51
NtRp3824
(dp3825
g54
(dp3826
sg63
g3820
sg56
(lp3827
g49
(g50
g51
NtRp3828
(dp3829
g54
(dp3830
g62
I3
ssg63
g3824
sg56
(lp3831
g3590
(S't\x06\x00\x00\x00Edycja'
tRp3832
asbasbasbag49
(g65
g51
NtRp3833
(dp3834
g54
(dp3835
sg63
g3816
sg56
(lp3836
g49
(g70
g51
NtRp3837
(dp3838
g54
(dp3839
sg63
g3833
sg56
(lp3840
g49
(g50
g51
NtRp3841
(dp3842
g54
(dp3843
g62
I3
ssg63
g3837
sg56
(lp3844
g92
asbasbasbag49
(g65
g51
NtRp3845
(dp3846
g54
(dp3847
sg63
g3816
sg56
(lp3848
g49
(g70
g51
NtRp3849
(dp3850
g54
(dp3851
sg63
g3845
sg56
(lp3852
g49
(g50
g51
NtRp3853
(dp3854
g54
(dp3855
g62
I3
ssg63
g3849
sg56
(lp3856
S'/admin/default/design/ASA'
p3857
asbasbasbag49
(g65
g51
NtRp3858
(dp3859
g54
(dp3860
sg63
g3816
sg56
(lp3861
g49
(g70
g51
NtRp3862
(dp3863
g54
(dp3864
sg63
g3858
sg56
(lp3865
g49
(g50
g51
NtRp3866
(dp3867
g54
(dp3868
g62
I3
ssg63
g3862
sg56
(lp3869
g49
(g58
g51
NtRp3870
(dp3871
g54
(dp3872
g62
I2
ssg63
Nsg56
(lp3873
g49
(g65
g51
NtRp3874
(dp3875
g54
(dp3876
sg63
g3870
sg56
(lp3877
g49
(g70
g51
NtRp3878
(dp3879
g54
(dp3880
sg63
g3874
sg56
(lp3881
g49
(g50
g51
NtRp3882
(dp3883
g54
(dp3884
g62
I2
ssg63
g3878
sg56
(lp3885
g49
(g58
g51
NtRp3886
(dp3887
g54
(dp3888
g62
I1
ssg63
Nsg56
(lp3889
g49
(g65
g51
NtRp3890
(dp3891
g54
(dp3892
sg63
g3886
sg56
(lp3893
g49
(g70
g51
NtRp3894
(dp3895
g54
(dp3896
sg63
g3890
sg56
(lp3897
g49
(g50
g51
NtRp3898
(dp3899
g54
(dp3900
g62
I1
ssg63
g3894
sg56
(lp3901
g3590
(S't\t\x00\x00\x00Kontroler'
tRp3902
asbasbasbag49
(g65
g51
NtRp3903
(dp3904
g54
(dp3905
sg63
g3886
sg56
(lp3906
g49
(g70
g51
NtRp3907
(dp3908
g54
(dp3909
sg63
g3903
sg56
(lp3910
g49
(g50
g51
NtRp3911
(dp3912
g54
(dp3913
g62
I1
ssg63
g3907
sg56
(lp3914
I00
asbasbasbag49
(g65
g51
NtRp3915
(dp3916
g54
(dp3917
sg63
g3886
sg56
(lp3918
g49
(g70
g51
NtRp3919
(dp3920
g54
(dp3921
sg63
g3915
sg56
(lp3922
g49
(g50
g51
NtRp3923
(dp3924
g54
(dp3925
g62
I1
ssg63
g3919
sg56
(lp3926
S'/admin/default/edit/ASA/controllers/default.py'
p3927
asbasbasbasbasbasbasbag49
(g65
g51
NtRp3928
(dp3929
g54
(dp3930
sg63
g3870
sg56
(lp3931
g49
(g70
g51
NtRp3932
(dp3933
g54
(dp3934
sg63
g3928
sg56
(lp3935
g49
(g50
g51
NtRp3936
(dp3937
g54
(dp3938
g62
I2
ssg63
g3932
sg56
(lp3939
g49
(g58
g51
NtRp3940
(dp3941
g54
(dp3942
g62
I1
ssg63
Nsg56
(lp3943
g49
(g65
g51
NtRp3944
(dp3945
g54
(dp3946
sg63
g3940
sg56
(lp3947
g49
(g70
g51
NtRp3948
(dp3949
g54
(dp3950
sg63
g3944
sg56
(lp3951
g49
(g50
g51
NtRp3952
(dp3953
g54
(dp3954
g62
I1
ssg63
g3948
sg56
(lp3955
g3590
(S't\x05\x00\x00\x00Widok'
tRp3956
asbasbasbag49
(g65
g51
NtRp3957
(dp3958
g54
(dp3959
sg63
g3940
sg56
(lp3960
g49
(g70
g51
NtRp3961
(dp3962
g54
(dp3963
sg63
g3957
sg56
(lp3964
g49
(g50
g51
NtRp3965
(dp3966
g54
(dp3967
g62
I1
ssg63
g3961
sg56
(lp3968
I00
asbasbasbag49
(g65
g51
NtRp3969
(dp3970
g54
(dp3971
sg63
g3940
sg56
(lp3972
g49
(g70
g51
NtRp3973
(dp3974
g54
(dp3975
sg63
g3969
sg56
(lp3976
g49
(g50
g51
NtRp3977
(dp3978
g54
(dp3979
g62
I1
ssg63
g3973
sg56
(lp3980
S'/admin/default/edit/ASA/views/appadmin/select.html'
p3981
asbasbasbasbasbasbasbag49
(g65
g51
NtRp3982
(dp3983
g54
(dp3984
sg63
g3870
sg56
(lp3985
g49
(g70
g51
NtRp3986
(dp3987
g54
(dp3988
sg63
g3982
sg56
(lp3989
g49
(g50
g51
NtRp3990
(dp3991
g54
(dp3992
g62
I2
ssg63
g3986
sg56
(lp3993
g49
(g58
g51
NtRp3994
(dp3995
g54
(dp3996
g62
I1
ssg63
Nsg56
(lp3997
g49
(g65
g51
NtRp3998
(dp3999
g54
(dp4000
sg63
g3994
sg56
(lp4001
g49
(g70
g51
NtRp4002
(dp4003
g54
(dp4004
sg63
g3998
sg56
(lp4005
g49
(g50
g51
NtRp4006
(dp4007
g54
(dp4008
g62
I1
ssg63
g4002
sg56
(lp4009
g3590
(S's\x06\x00\x00\x00Uk\xc5\x82ad'
tRp4010
asbasbasbag49
(g65
g51
NtRp4011
(dp4012
g54
(dp4013
sg63
g3994
sg56
(lp4014
g49
(g70
g51
NtRp4015
(dp4016
g54
(dp4017
sg63
g4011
sg56
(lp4018
g49
(g50
g51
NtRp4019
(dp4020
g54
(dp4021
g62
I1
ssg63
g4015
sg56
(lp4022
I00
asbasbasbag49
(g65
g51
NtRp4023
(dp4024
g54
(dp4025
sg63
g3994
sg56
(lp4026
g49
(g70
g51
NtRp4027
(dp4028
g54
(dp4029
sg63
g4023
sg56
(lp4030
g49
(g50
g51
NtRp4031
(dp4032
g54
(dp4033
g62
I1
ssg63
g4027
sg56
(lp4034
S'/admin/default/edit/ASA/views/layout.html'
p4035
asbasbasbasbasbasbasbag49
(g65
g51
NtRp4036
(dp4037
g54
(dp4038
sg63
g3870
sg56
(lp4039
g49
(g70
g51
NtRp4040
(dp4041
g54
(dp4042
sg63
g4036
sg56
(lp4043
g49
(g50
g51
NtRp4044
(dp4045
g54
(dp4046
g62
I2
ssg63
g4040
sg56
(lp4047
g49
(g58
g51
NtRp4048
(dp4049
g54
(dp4050
g62
I1
ssg63
Nsg56
(lp4051
g49
(g65
g51
NtRp4052
(dp4053
g54
(dp4054
sg63
g4048
sg56
(lp4055
g49
(g70
g51
NtRp4056
(dp4057
g54
(dp4058
sg63
g4052
sg56
(lp4059
g49
(g50
g51
NtRp4060
(dp4061
g54
(dp4062
g62
I1
ssg63
g4056
sg56
(lp4063
g3590
(S's\x0e\x00\x00\x00Arkusz styl\xc3\xb3w'
tRp4064
asbasbasbag49
(g65
g51
NtRp4065
(dp4066
g54
(dp4067
sg63
g4048
sg56
(lp4068
g49
(g70
g51
NtRp4069
(dp4070
g54
(dp4071
sg63
g4065
sg56
(lp4072
g49
(g50
g51
NtRp4073
(dp4074
g54
(dp4075
g62
I1
ssg63
g4069
sg56
(lp4076
I00
asbasbasbag49
(g65
g51
NtRp4077
(dp4078
g54
(dp4079
sg63
g4048
sg56
(lp4080
g49
(g70
g51
NtRp4081
(dp4082
g54
(dp4083
sg63
g4077
sg56
(lp4084
g49
(g50
g51
NtRp4085
(dp4086
g54
(dp4087
g62
I1
ssg63
g4081
sg56
(lp4088
S'/admin/default/edit/ASA/static/base.css'
p4089
asbasbasbasbasbasbasbag49
(g65
g51
NtRp4090
(dp4091
g54
(dp4092
sg63
g3870
sg56
(lp4093
g49
(g70
g51
NtRp4094
(dp4095
g54
(dp4096
sg63
g4090
sg56
(lp4097
g49
(g50
g51
NtRp4098
(dp4099
g54
(dp4100
g62
I2
ssg63
g4094
sg56
(lp4101
g49
(g58
g51
NtRp4102
(dp4103
g54
(dp4104
g62
I1
ssg63
Nsg56
(lp4105
g49
(g65
g51
NtRp4106
(dp4107
g54
(dp4108
sg63
g4102
sg56
(lp4109
g49
(g70
g51
NtRp4110
(dp4111
g54
(dp4112
sg63
g4106
sg56
(lp4113
g49
(g50
g51
NtRp4114
(dp4115
g54
(dp4116
g62
I1
ssg63
g4110
sg56
(lp4117
g3590
(S's\x11\x00\x00\x00Model bazy danych'
tRp4118
asbasbasbag49
(g65
g51
NtRp4119
(dp4120
g54
(dp4121
sg63
g4102
sg56
(lp4122
g49
(g70
g51
NtRp4123
(dp4124
g54
(dp4125
sg63
g4119
sg56
(lp4126
g49
(g50
g51
NtRp4127
(dp4128
g54
(dp4129
g62
I1
ssg63
g4123
sg56
(lp4130
I00
asbasbasbag49
(g65
g51
NtRp4131
(dp4132
g54
(dp4133
sg63
g4102
sg56
(lp4134
g49
(g70
g51
NtRp4135
(dp4136
g54
(dp4137
sg63
g4131
sg56
(lp4138
g49
(g50
g51
NtRp4139
(dp4140
g54
(dp4141
g62
I1
ssg63
g4135
sg56
(lp4142
S'/admin/default/edit/ASA/models/db.py'
p4143
asbasbasbasbasbasbasbag49
(g65
g51
NtRp4144
(dp4145
g54
(dp4146
sg63
g3870
sg56
(lp4147
g49
(g70
g51
NtRp4148
(dp4149
g54
(dp4150
sg63
g4144
sg56
(lp4151
g49
(g50
g51
NtRp4152
(dp4153
g54
(dp4154
g62
I2
ssg63
g4148
sg56
(lp4155
g49
(g58
g51
NtRp4156
(dp4157
g54
(dp4158
g62
I1
ssg63
Nsg56
(lp4159
g49
(g65
g51
NtRp4160
(dp4161
g54
(dp4162
sg63
g4156
sg56
(lp4163
g49
(g70
g51
NtRp4164
(dp4165
g54
(dp4166
sg63
g4160
sg56
(lp4167
g49
(g50
g51
NtRp4168
(dp4169
g54
(dp4170
g62
I1
ssg63
g4164
sg56
(lp4171
g3590
(S's\n\x00\x00\x00Model menu'
tRp4172
asbasbasbag49
(g65
g51
NtRp4173
(dp4174
g54
(dp4175
sg63
g4156
sg56
(lp4176
g49
(g70
g51
NtRp4177
(dp4178
g54
(dp4179
sg63
g4173
sg56
(lp4180
g49
(g50
g51
NtRp4181
(dp4182
g54
(dp4183
g62
I1
ssg63
g4177
sg56
(lp4184
I00
asbasbasbag49
(g65
g51
NtRp4185
(dp4186
g54
(dp4187
sg63
g4156
sg56
(lp4188
g49
(g70
g51
NtRp4189
(dp4190
g54
(dp4191
sg63
g4185
sg56
(lp4192
g49
(g50
g51
NtRp4193
(dp4194
g54
(dp4195
g62
I1
ssg63
g4189
sg56
(lp4196
S'/admin/default/edit/ASA/models/menu.py'
p4197
asbasbasbasbasbasbasbag49
(g65
g51
NtRp4198
(dp4199
g54
(dp4200
sg63
g3870
sg56
(lp4201
g49
(g70
g51
NtRp4202
(dp4203
g54
(dp4204
sg63
g4198
sg56
(lp4205
g49
(g50
g51
NtRp4206
(dp4207
g54
(dp4208
g62
I2
ssg63
g4202
sg56
(lp4209
g49
(g58
g51
NtRp4210
(dp4211
g54
(dp4212
g62
I1
ssg63
Nsg56
(lp4213
g49
(g65
g51
NtRp4214
(dp4215
g54
(dp4216
sg63
g4210
sg56
(lp4217
g49
(g70
g51
NtRp4218
(dp4219
g54
(dp4220
sg63
g4214
sg56
(lp4221
g49
(g50
g51
NtRp4222
(dp4223
g54
(dp4224
g62
I1
ssg63
g4218
sg56
(lp4225
g3590
(S's\x0b\x00\x00\x00Baza danych'
tRp4226
asbasbasbag49
(g65
g51
NtRp4227
(dp4228
g54
(dp4229
sg63
g4210
sg56
(lp4230
g49
(g70
g51
NtRp4231
(dp4232
g54
(dp4233
sg63
g4227
sg56
(lp4234
g49
(g50
g51
NtRp4235
(dp4236
g54
(dp4237
g62
I1
ssg63
g4231
sg56
(lp4238
I00
asbasbasbag49
(g65
g51
NtRp4239
(dp4240
g54
(dp4241
sg63
g4210
sg56
(lp4242
g49
(g70
g51
NtRp4243
(dp4244
g54
(dp4245
sg63
g4239
sg56
(lp4246
g49
(g50
g51
NtRp4247
(dp4248
g54
(dp4249
g62
I1
ssg63
g4243
sg56
(lp4250
S'/ASA/appadmin/index'
p4251
asbasbasbasbasbasbasbasbasbasbasbasbasbasbasbasbasbasbasbag49
(g65
g51
NtRp4252
(dp4253
g54
(dp4254
sg63
g3117
sg56
(lp4255
g49
(g70
g51
NtRp4256
(dp4257
g54
(dp4258
g74
g75
ssg63
g4252
sg56
(lp4259
S'meta'
p4260
asbag49
(g70
g51
NtRp4261
(dp4262
g54
(dp4263
g81
g82
ssg63
g4252
sg56
(lp4264
S':'
asbag49
(g70
g51
NtRp4265
(dp4266
g54
(dp4267
sg63
g4252
sg56
(lp4268
g49
(g50
g51
NtRp4269
(dp4270
g54
(dp4271
g62
I5
ssg63
g4265
sg56
(lp4272
g49
(g58
g51
NtRp4273
(dp4274
g54
(dp4275
g62
I4
ssg63
Nsg56
(lp4276
sbasbasbasbag49
(g65
g51
NtRp4277
(dp4278
g54
(dp4279
sg63
g3117
sg56
(lp4280
g49
(g70
g51
NtRp4281
(dp4282
g54
(dp4283
g74
g75
ssg63
g4277
sg56
(lp4284
S'postprocessing'
p4285
asbag49
(g70
g51
NtRp4286
(dp4287
g54
(dp4288
g81
g82
ssg63
g4277
sg56
(lp4289
S':'
asbag49
(g70
g51
NtRp4290
(dp4291
g54
(dp4292
sg63
g4277
sg56
(lp4293
g49
(g50
g51
NtRp4294
(dp4295
g54
(dp4296
g62
I5
ssg63
g4290
sg56
(lp4297
g49
(g58
g51
NtRp4298
(dp4299
g54
(dp4300
g62
I4
ssg63
Nsg56
(lp4301
sbasbasbasbag49
(g65
g51
NtRp4302
(dp4303
g54
(dp4304
sg63
g3117
sg56
(lp4305
g49
(g70
g51
NtRp4306
(dp4307
g54
(dp4308
g74
g75
ssg63
g4302
sg56
(lp4309
S'session_file'
p4310
asbag49
(g70
g51
NtRp4311
(dp4312
g54
(dp4313
g81
g82
ssg63
g4302
sg56
(lp4314
S':'
asbag49
(g70
g51
NtRp4315
(dp4316
g54
(dp4317
sg63
g4302
sg56
(lp4318
g49
(g50
g51
NtRp4319
(dp4320
g54
(dp4321
g62
I5
ssg63
g4315
sg56
(lp4322
S"<open file 'D:\\UCZELNIA\\ELKA\\tin\\web2py\\web2py_win\\web2py\\applications\\ASA\\sessions\\127.0.0.1-e0241e6a-d76e-4a96-90ff-9a64d2380ff9', mode 'rb+' at 0x05B83140>"
p4323
asbasbasbag49
(g65
g51
NtRp4324
(dp4325
g54
(dp4326
sg63
g3117
sg56
(lp4327
g49
(g70
g51
NtRp4328
(dp4329
g54
(dp4330
g74
g75
ssg63
g4324
sg56
(lp4331
S'session_filename'
p4332
asbag49
(g70
g51
NtRp4333
(dp4334
g54
(dp4335
g81
g82
ssg63
g4324
sg56
(lp4336
S':'
asbag49
(g70
g51
NtRp4337
(dp4338
g54
(dp4339
sg63
g4324
sg56
(lp4340
g49
(g50
g51
NtRp4341
(dp4342
g54
(dp4343
g62
I5
ssg63
g4337
sg56
(lp4344
S'D:\\UCZELNIA\\ELKA\\tin\\web2py\\web2py_win\\web2py\\applications\\ASA\\sessions\\127.0.0.1-e0241e6a-d76e-4a96-90ff-9a64d2380ff9'
p4345
asbasbasbag49
(g65
g51
NtRp4346
(dp4347
g54
(dp4348
sg63
g3117
sg56
(lp4349
g49
(g70
g51
NtRp4350
(dp4351
g54
(dp4352
g74
g75
ssg63
g4346
sg56
(lp4353
S'session_id'
p4354
asbag49
(g70
g51
NtRp4355
(dp4356
g54
(dp4357
g81
g82
ssg63
g4346
sg56
(lp4358
S':'
asbag49
(g70
g51
NtRp4359
(dp4360
g54
(dp4361
sg63
g4346
sg56
(lp4362
g49
(g50
g51
NtRp4363
(dp4364
g54
(dp4365
g62
I5
ssg63
g4359
sg56
(lp4366
S'127.0.0.1-e0241e6a-d76e-4a96-90ff-9a64d2380ff9'
p4367
asbasbasbag49
(g65
g51
NtRp4368
(dp4369
g54
(dp4370
sg63
g3117
sg56
(lp4371
g49
(g70
g51
NtRp4372
(dp4373
g54
(dp4374
g74
g75
ssg63
g4368
sg56
(lp4375
S'session_id_name'
p4376
asbag49
(g70
g51
NtRp4377
(dp4378
g54
(dp4379
g81
g82
ssg63
g4368
sg56
(lp4380
S':'
asbag49
(g70
g51
NtRp4381
(dp4382
g54
(dp4383
sg63
g4368
sg56
(lp4384
g49
(g50
g51
NtRp4385
(dp4386
g54
(dp4387
g62
I5
ssg63
g4381
sg56
(lp4388
g3174
asbasbasbag49
(g65
g51
NtRp4389
(dp4390
g54
(dp4391
sg63
g3117
sg56
(lp4392
g49
(g70
g51
NtRp4393
(dp4394
g54
(dp4395
g74
g75
ssg63
g4389
sg56
(lp4396
S'session_locked'
p4397
asbag49
(g70
g51
NtRp4398
(dp4399
g54
(dp4400
g81
g82
ssg63
g4389
sg56
(lp4401
S':'
asbag49
(g70
g51
NtRp4402
(dp4403
g54
(dp4404
sg63
g4389
sg56
(lp4405
g49
(g50
g51
NtRp4406
(dp4407
g54
(dp4408
g62
I5
ssg63
g4402
sg56
(lp4409
g1657
asbasbasbag49
(g65
g51
NtRp4410
(dp4411
g54
(dp4412
sg63
g3117
sg56
(lp4413
g49
(g70
g51
NtRp4414
(dp4415
g54
(dp4416
g74
g75
ssg63
g4410
sg56
(lp4417
S'session_new'
p4418
asbag49
(g70
g51
NtRp4419
(dp4420
g54
(dp4421
g81
g82
ssg63
g4410
sg56
(lp4422
S':'
asbag49
(g70
g51
NtRp4423
(dp4424
g54
(dp4425
sg63
g4410
sg56
(lp4426
g49
(g50
g51
NtRp4427
(dp4428
g54
(dp4429
g62
I5
ssg63
g4423
sg56
(lp4430
g92
asbasbasbag49
(g65
g51
NtRp4431
(dp4432
g54
(dp4433
sg63
g3117
sg56
(lp4434
g49
(g70
g51
NtRp4435
(dp4436
g54
(dp4437
g74
g75
ssg63
g4431
sg56
(lp4438
S'status'
p4439
asbag49
(g70
g51
NtRp4440
(dp4441
g54
(dp4442
g81
g82
ssg63
g4431
sg56
(lp4443
S':'
asbag49
(g70
g51
NtRp4444
(dp4445
g54
(dp4446
sg63
g4431
sg56
(lp4447
g49
(g50
g51
NtRp4448
(dp4449
g54
(dp4450
g62
I5
ssg63
g4444
sg56
(lp4451
S'200'
p4452
asbasbasbag49
(g65
g51
NtRp4453
(dp4454
g54
(dp4455
sg63
g3117
sg56
(lp4456
g49
(g70
g51
NtRp4457
(dp4458
g54
(dp4459
g74
g75
ssg63
g4453
sg56
(lp4460
S'subtitle'
p4461
asbag49
(g70
g51
NtRp4462
(dp4463
g54
(dp4464
g81
g82
ssg63
g4453
sg56
(lp4465
S':'
asbag49
(g70
g51
NtRp4466
(dp4467
g54
(dp4468
sg63
g4453
sg56
(lp4469
g49
(g50
g51
NtRp4470
(dp4471
g54
(dp4472
g62
I5
ssg63
g4466
sg56
(lp4473
g3590
(S's\x0e\x00\x00\x00dostosuj mnie!'
tRp4474
asbasbasbag49
(g65
g51
NtRp4475
(dp4476
g54
(dp4477
sg63
g3117
sg56
(lp4478
g49
(g70
g51
NtRp4479
(dp4480
g54
(dp4481
g74
g75
ssg63
g4475
sg56
(lp4482
S'title'
p4483
asbag49
(g70
g51
NtRp4484
(dp4485
g54
(dp4486
g81
g82
ssg63
g4475
sg56
(lp4487
S':'
asbag49
(g70
g51
NtRp4488
(dp4489
g54
(dp4490
sg63
g4475
sg56
(lp4491
g49
(g50
g51
NtRp4492
(dp4493
g54
(dp4494
g62
I5
ssg63
g4488
sg56
(lp4495
g114
asbasbasbag49
(g65
g51
NtRp4496
(dp4497
g54
(dp4498
sg63
g3117
sg56
(lp4499
g49
(g70
g51
NtRp4500
(dp4501
g54
(dp4502
g74
g75
ssg63
g4496
sg56
(lp4503
g2343
asbag49
(g70
g51
NtRp4504
(dp4505
g54
(dp4506
g81
g82
ssg63
g4496
sg56
(lp4507
S':'
asbag49
(g70
g51
NtRp4508
(dp4509
g54
(dp4510
sg63
g4496
sg56
(lp4511
g49
(g50
g51
NtRp4512
(dp4513
g54
(dp4514
g62
I5
ssg63
g4508
sg56
(lp4515
g2356
asbasbasbag49
(g65
g51
NtRp4516
(dp4517
g54
(dp4518
sg63
g3117
sg56
(lp4519
g49
(g70
g51
NtRp4520
(dp4521
g54
(dp4522
g74
g75
ssg63
g4516
sg56
(lp4523
S'view'
p4524
asbag49
(g70
g51
NtRp4525
(dp4526
g54
(dp4527
g81
g82
ssg63
g4516
sg56
(lp4528
S':'
asbag49
(g70
g51
NtRp4529
(dp4530
g54
(dp4531
sg63
g4516
sg56
(lp4532
g49
(g50
g51
NtRp4533
(dp4534
g54
(dp4535
g62
I5
ssg63
g4529
sg56
(lp4536
S'appadmin.html'
p4537
asbasbasbasbasbsS'locals'
p4538
(dp4539
S'self'
p4540
S"<DAL {'auth_event': <Table {'origin': <gluon.dal...'_id': <gluon.dal.Field object at 0x06D60CB0>}>}>"
p4541
sS'key'
p4542
S"'index'"
p4543
sssS'traceback'
p4544
S'Traceback (most recent call last):\n  File "gluon/restricted.py", line 204, in restricted\n  File "D:\\UCZELNIA\\ELKA\\tin\\web2py\\web2py_win\\web2py\\applications\\ASA\\controllers/appadmin.py", line 433, in <module>\n  File "gluon/globals.py", line 172, in <lambda>\n  File "D:\\UCZELNIA\\ELKA\\tin\\web2py\\web2py_win\\web2py\\applications\\ASA\\controllers/appadmin.py", line 164, in select\n  File "gluon/dal.py", line 5113, in __getitem__\nKeyError: \'index\'\n'
p4545
s.